BL51 BANKED LINKER/LOCATER V6.22                                                        08/26/2021  06:15:46  PAGE 1


BL51 BANKED LINKER/LOCATER V6.22, INVOKED BY:
E:\INSTALL_FILES\KEIL\C51\BIN\BL51.EXE ..\Objects\PW02.obj, ..\Objects\oled.obj, ..\Objects\RDA5807M.obj, ..\Objects\PCF
>> 8563.obj, ..\Objects\BME280.obj, ..\Objects\Ellipsoid fitting.obj, ..\Objects\HMC5883L.obj, ..\Objects\LSM6DSM.obj, .
>> .\Objects\PowerManage.obj, ..\Objects\IIC.obj, ..\Objects\Sys.obj, ..\Objects\EEPROM.obj, ..\Objects\Buzzer.obj, ..\O
>> bjects\Delay.obj, ..\Objects\Display.obj, ..\Objects\main.obj TO ..\Objects\iWatch-v1.1 PRINT (..\Listings\iWatch-v1.
>> m51) RAMSIZE (256)


MEMORY MODEL: LARGE WITH FLOATING POINT ARITHMETIC


INPUT MODULES INCLUDED:
  ..\Objects\PW02.obj (PW02)
  ..\Objects\oled.obj (OLED)
  ..\Objects\RDA5807M.obj (RDA5807M)
  ..\Objects\PCF8563.obj (PCF8563)
  ..\Objects\BME280.obj (BME280)
  ..\Objects\Ellipsoid fitting.obj (ELLIPSOID_FITTING)
  ..\Objects\HMC5883L.obj (HMC5883L)
  ..\Objects\LSM6DSM.obj (LSM6DSM)
  ..\Objects\PowerManage.obj (POWERMANAGE)
  ..\Objects\IIC.obj (IIC)
  ..\Objects\Sys.obj (SYS)
  ..\Objects\EEPROM.obj (EEPROM)
  ..\Objects\Buzzer.obj (BUZZER)
  ..\Objects\Delay.obj (DELAY)
  ..\Objects\Display.obj (DISPLAY)
  ..\Objects\main.obj (MAIN)
  E:\INSTALL_FILES\KEIL\C51\LIB\C51FPL.LIB (?C?FPADD)
  E:\INSTALL_FILES\KEIL\C51\LIB\C51FPL.LIB (?C?FPMUL)
  E:\INSTALL_FILES\KEIL\C51\LIB\C51FPL.LIB (?C?FPDIV)
  E:\INSTALL_FILES\KEIL\C51\LIB\C51FPL.LIB (?C?FPCMP)
  E:\INSTALL_FILES\KEIL\C51\LIB\C51FPL.LIB (?C?FPNEG)
  E:\INSTALL_FILES\KEIL\C51\LIB\C51FPL.LIB (?C?FCAST)
  E:\INSTALL_FILES\KEIL\C51\LIB\C51FPL.LIB (?C?CASTF)
  E:\INSTALL_FILES\KEIL\C51\LIB\C51FPL.LIB (PRINTF)
  E:\INSTALL_FILES\KEIL\C51\LIB\C51FPL.LIB (SQRT)
  E:\INSTALL_FILES\KEIL\C51\LIB\C51FPL.LIB (ATAN2)
  E:\INSTALL_FILES\KEIL\C51\LIB\C51FPL.LIB (SIN)
  E:\INSTALL_FILES\KEIL\C51\LIB\C51FPL.LIB (ATAN)
  E:\INSTALL_FILES\KEIL\C51\LIB\C51FPL.LIB (ASIN)
  E:\INSTALL_FILES\KEIL\C51\LIB\C51FPL.LIB (POW)
  E:\INSTALL_FILES\KEIL\C51\LIB\C51FPL.LIB (?C?FPGETOPN)
  E:\INSTALL_FILES\KEIL\C51\LIB\C51FPL.LIB (?C?CHKFLOAT)
  E:\INSTALL_FILES\KEIL\C51\LIB\C51FPL.LIB (?C?FPROUND)
  E:\INSTALL_FILES\KEIL\C51\LIB\C51FPL.LIB (?C?FPCONVERT)
  E:\INSTALL_FILES\KEIL\C51\LIB\C51FPL.LIB (?C?FPSERIES)
  E:\INSTALL_FILES\KEIL\C51\LIB\C51FPL.LIB (EXP)
  E:\INSTALL_FILES\KEIL\C51\LIB\C51FPL.LIB (LOG)
  E:\INSTALL_FILES\KEIL\C51\LIB\C51FPL.LIB (?C?FTNPWR)
  E:\INSTALL_FILES\KEIL\C51\LIB\C51L.LIB (?C_STARTUP)
  E:\INSTALL_FILES\KEIL\C51\LIB\C51L.LIB (?C?COPY)
  E:\INSTALL_FILES\KEIL\C51\LIB\C51L.LIB (?C?CLDPTR)
  E:\INSTALL_FILES\KEIL\C51\LIB\C51L.LIB (?C?CLDOPTR)
  E:\INSTALL_FILES\KEIL\C51\LIB\C51L.LIB (?C?CILDOPTR)
  E:\INSTALL_FILES\KEIL\C51\LIB\C51L.LIB (?C?CSTPTR)
  E:\INSTALL_FILES\KEIL\C51\LIB\C51L.LIB (?C?CSTOPTR)
  E:\INSTALL_FILES\KEIL\C51\LIB\C51L.LIB (?C?UIDIV)
BL51 BANKED LINKER/LOCATER V6.22                                                      08/26/2021  06:15:46  PAGE 2


  E:\INSTALL_FILES\KEIL\C51\LIB\C51L.LIB (?C?SIDIV)
  E:\INSTALL_FILES\KEIL\C51\LIB\C51L.LIB (?C?IILDX)
  E:\INSTALL_FILES\KEIL\C51\LIB\C51L.LIB (?C?ILDIX)
  E:\INSTALL_FILES\KEIL\C51\LIB\C51L.LIB (?C?ILDPTR)
  E:\INSTALL_FILES\KEIL\C51\LIB\C51L.LIB (?C?ILDOPTR)
  E:\INSTALL_FILES\KEIL\C51\LIB\C51L.LIB (?C?ISTPTR)
  E:\INSTALL_FILES\KEIL\C51\LIB\C51L.LIB (?C?ISTOPTR)
  E:\INSTALL_FILES\KEIL\C51\LIB\C51L.LIB (?C?LMUL)
  E:\INSTALL_FILES\KEIL\C51\LIB\C51L.LIB (?C?SLDIV)
  E:\INSTALL_FILES\KEIL\C51\LIB\C51L.LIB (?C?LNEG)
  E:\INSTALL_FILES\KEIL\C51\LIB\C51L.LIB (?C?SLCMP)
  E:\INSTALL_FILES\KEIL\C51\LIB\C51L.LIB (?C?SLSHR)
  E:\INSTALL_FILES\KEIL\C51\LIB\C51L.LIB (?C?LSHL)
  E:\INSTALL_FILES\KEIL\C51\LIB\C51L.LIB (?C?LLDPTR)
  E:\INSTALL_FILES\KEIL\C51\LIB\C51L.LIB (?C?LLDOPTR)
  E:\INSTALL_FILES\KEIL\C51\LIB\C51L.LIB (?C?LSTPTR)
  E:\INSTALL_FILES\KEIL\C51\LIB\C51L.LIB (?C?LSTOPTR)
  E:\INSTALL_FILES\KEIL\C51\LIB\C51L.LIB (?C?LLDIDATA)
  E:\INSTALL_FILES\KEIL\C51\LIB\C51L.LIB (?C?LLDXDATA)
  E:\INSTALL_FILES\KEIL\C51\LIB\C51L.LIB (?C?LLDCODE)
  E:\INSTALL_FILES\KEIL\C51\LIB\C51L.LIB (?C?LLDIDATA0)
  E:\INSTALL_FILES\KEIL\C51\LIB\C51L.LIB (?C?LLDXDATA0)
  E:\INSTALL_FILES\KEIL\C51\LIB\C51L.LIB (?C?LLDCODE0)
  E:\INSTALL_FILES\KEIL\C51\LIB\C51L.LIB (?C?LSTIDATA)
  E:\INSTALL_FILES\KEIL\C51\LIB\C51L.LIB (?C?LSTXDATA)
  E:\INSTALL_FILES\KEIL\C51\LIB\C51L.LIB (?C?LSTKXDATA)
  E:\INSTALL_FILES\KEIL\C51\LIB\C51L.LIB (?C?OFFXADD)
  E:\INSTALL_FILES\KEIL\C51\LIB\C51L.LIB (?C?PLDIXDATA)
  E:\INSTALL_FILES\KEIL\C51\LIB\C51L.LIB (?C?PSTXDATA)
  E:\INSTALL_FILES\KEIL\C51\LIB\C51L.LIB (?C?CCASE)
  E:\INSTALL_FILES\KEIL\C51\LIB\C51L.LIB (PUTCHAR)
  E:\INSTALL_FILES\KEIL\C51\LIB\C51L.LIB (RAND)
  E:\INSTALL_FILES\KEIL\C51\LIB\C51L.LIB (STRCAT)
  E:\INSTALL_FILES\KEIL\C51\LIB\C51L.LIB (?C?STRCPY)
  E:\INSTALL_FILES\KEIL\C51\LIB\C51L.LIB (?C?MEMCMP)
  E:\INSTALL_FILES\KEIL\C51\LIB\C51L.LIB (?C_INIT)
  E:\INSTALL_FILES\KEIL\C51\LIB\C51L.LIB (?C?ULDIV)
  E:\INSTALL_FILES\KEIL\C51\LIB\C51L.LIB (?C?LLDPDATA)
  E:\INSTALL_FILES\KEIL\C51\LIB\C51L.LIB (?C?LSTPDATA)


LINK MAP OF MODULE:  ..\Objects\iWatch-v1.1 (PW02)


            TYPE    BASE      LENGTH    RELOCATION   SEGMENT NAME
            -----------------------------------------------------

            * * * * * * *   D A T A   M E M O R Y   * * * * * * *
            REG     0000H     0008H     ABSOLUTE     "REG BANK 0"
            REG     0008H     0008H     ABSOLUTE     "REG BANK 1"
            DATA    0010H     0002H     UNIT         ?DT?IIC
                    0012H     000EH                  *** GAP ***
            BIT     0020H.0   0002H.6   UNIT         ?BI?MAIN
            BIT     0022H.6   0001H.1   UNIT         _BIT_GROUP_
            BIT     0023H.7   0000H.2   UNIT         ?BI?PW02
            BIT     0024H.1   0000H.1   UNIT         ?BI?BUZZER
                    0024H.2   0000H.6                *** GAP ***
BL51 BANKED LINKER/LOCATER V6.22                                                      08/26/2021  06:15:46  PAGE 3


            DATA    0025H     0016H     UNIT         _DATA_GROUP_
            IDATA   003BH     0030H     UNIT         _IDATA_GROUP_
            IDATA   006BH     001CH     UNIT         ?ID?LSM6DSM
            IDATA   0087H     0001H     UNIT         ?STACK

            * * * * * * *  X D A T A   M E M O R Y  * * * * * * *
            XDATA   0000H     0C08H     UNIT         ?XD?DISPLAY
            XDATA   0C08H     035EH     UNIT         ?XD?MAIN
            XDATA   0F66H     00E3H     UNIT         _XDATA_GROUP_
            XDATA   1049H     00DAH     UNIT         ?XD?ELLIPSOID_FITTING
            XDATA   1123H     0081H     UNIT         ?XD?PW02
            XDATA   11A4H     0075H     UNIT         ?XD?SYS
            XDATA   1219H     0054H     UNIT         ?XD?POWERMANAGE
            XDATA   126DH     0036H     UNIT         ?XD?BME280
            XDATA   12A3H     0018H     UNIT         ?XD?RDA5807M
            XDATA   12BBH     0013H     UNIT         ?XD?HMC5883L
            XDATA   12CEH     0009H     UNIT         ?XD?BME280_CAL_MEAS_DELAY?BME280
            XDATA   12D7H     0004H     UNIT         ?XD?RAND?RAND
            XDATA   12DBH     0003H     UNIT         ?XD?_BME280SINGLEMEASUREMENT?BME280
            XDATA   12DEH     0003H     UNIT         ?XD?BUZZER

            * * * * * * *   C O D E   M E M O R Y   * * * * * * *
            CODE    0000H     0003H     ABSOLUTE     
            CODE    0003H     0003H     ABSOLUTE     
            CODE    0006H     0004H     UNIT         ?PR?MCUSOFTRESET?SYS
                    000AH     0001H                  *** GAP ***
            CODE    000BH     0003H     ABSOLUTE     
            CODE    000EH     0004H     UNIT         ?PR?ENABLEWATCHDOG?SYS
                    0012H     0001H                  *** GAP ***
            CODE    0013H     0003H     ABSOLUTE     
            CODE    0016H     002CH     UNIT         ?PR?SYSTEMPOWERDOWN?POWERMANAGE
                    0042H     0001H                  *** GAP ***
            CODE    0043H     0003H     ABSOLUTE     
            CODE    0046H     000DH     UNIT         ?PR?_HMC5883L_WRITE_BYTE?HMC5883L
            CODE    0053H     0003H     ABSOLUTE     
            CODE    0056H     0004H     UNIT         ?PR?FEEDWATCHDOG?SYS
                    005AH     0001H                  *** GAP ***
            CODE    005BH     0003H     ABSOLUTE     
            CODE    005EH     003DH     UNIT         ?PR?_UART2SENDSTR?PW02
            CODE    009BH     0003H     ABSOLUTE     
            CODE    009EH     0003H     UNIT         ?PR?_SCREENREFRESHALL?DISPLAY
                    00A1H     0002H                  *** GAP ***
            CODE    00A3H     0003H     ABSOLUTE     
            CODE    00A6H     4339H     UNIT         ?PR?MAIN?MAIN
            CODE    43DFH     2338H     UNIT         ?CO?MAIN
            CODE    6717H     0E96H     UNIT         ?C?LIB_CODE
            CODE    75ADH     0E4EH     UNIT         ?C_INITSEG
            CODE    83FBH     0C4AH     UNIT         ?CO?DISPLAY
            CODE    9045H     0872H     UNIT         ?PR?_IMUUPDATE?LSM6DSM
            CODE    98B7H     0483H     UNIT         ?PR?PRINTF?PRINTF
            CODE    9D3AH     03FDH     UNIT         ?PR?_SCREENPUSHANIMATION?DISPLAY
            CODE    A137H     03B9H     UNIT         ?PR?COMPENSATE_PRESSURE?BME280
            CODE    A4F0H     037FH     UNIT         ?PR?_ELLIPSOID_FITTING_PROCESS?ELLIPSOID_FITTING
            CODE    A86FH     0334H     UNIT         ?PR?_SHOWSTRING?DISPLAY
            CODE    ABA3H     0282H     UNIT         ?PR?_DRAWLINE?DISPLAY
            CODE    AE25H     026AH     UNIT         ?PR?_DISPLAYTIME?DISPLAY
            CODE    B08FH     0252H     UNIT         ?PR?COMPENSATE_HUMIDITY?BME280
BL51 BANKED LINKER/LOCATER V6.22                                                      08/26/2021  06:15:46  PAGE 4


            CODE    B2E1H     0240H     UNIT         ?PR?_HMC5883L_GET_ANGLEXY?HMC5883L
            CODE    B521H     01FEH     UNIT         ?PR?_DRAWARM?DISPLAY
            CODE    B71FH     01F2H     UNIT         ?PR?_DRAWSELECTIONFRAME?DISPLAY
            CODE    B911H     01DBH     UNIT         ?PR?COMPENSATE_TEMPERATURE?BME280
            CODE    BAECH     018CH     UNIT         ?PR?_MATRIX_SOLVE?ELLIPSOID_FITTING
            CODE    BC78H     0188H     UNIT         ?PR?SIN?SIN
            CODE    BE00H     0181H     UNIT         ?PR?GETBATTERYLIFE?POWERMANAGE
            CODE    BF81H     0180H     UNIT         ?PR?BME280READCOMPENSATIONPARAMETER?BME280
            CODE    C101H     0173H     UNIT         ?PR?_CALCDATA_INPUT?ELLIPSOID_FITTING
            CODE    C274H     0166H     UNIT         ?PR?_POW?POW
            CODE    C3DAH     0157H     UNIT         ?PR?_BMPTOCACHE?DISPLAY
            CODE    C531H     014BH     UNIT         ?PR?_READ_HMC5883L?HMC5883L
            CODE    C67CH     012BH     UNIT         ?PR?_SCREEROLLDOWN?DISPLAY
            CODE    C7A7H     0129H     UNIT         ?PR?LOG?LOG
            CODE    C8D0H     0122H     UNIT         ?PR?ATAN?ATAN
            CODE    C9F2H     0120H     UNIT         ?PR?PW02INIT?PW02
            CODE    CB12H     011FH     UNIT         ?PR?TM3_IST?MAIN
            CODE    CC31H     011AH     UNIT         ?PR?SENSORINIT?MAIN
            CODE    CD4BH     0114H     UNIT         ?PR?_SCREEROLLUP?DISPLAY
            CODE    CE5FH     0109H     UNIT         ?PR?MATRIX_GAUSSELIMINATION?ELLIPSOID_FITTING
            CODE    CF68H     0105H     UNIT         ?PR?_PCF8563READTIME?PCF8563
            CODE    D06DH     00FEH     UNIT         ?PR?BME280_CAL_MEAS_DELAY?BME280
            CODE    D16BH     00EAH     UNIT         ?PR?_ROW2_SWOP_ROW1?ELLIPSOID_FITTING
            CODE    D255H     00D8H     UNIT         ?PR?BME280READSENSORRAWDATA?BME280
            CODE    D32DH     00D7H     UNIT         ?PR?PW02CHECKCONNECTION?PW02
            CODE    D404H     00D5H     UNIT         ?PR?GETBATTERYVOLTAGE?POWERMANAGE
            CODE    D4D9H     00C2H     UNIT         ?PR?_PCF8563SETALARM?PCF8563
            CODE    D59BH     00BEH     UNIT         ?CO?PW02
            CODE    D659H     00B3H     UNIT         ?PR?_LSM6DSMREADGYRANDACC?LSM6DSM
            CODE    D70CH     00AFH     UNIT         ?PR?_RDA5807MSETFQ?RDA5807M
            CODE    D7BBH     00AFH     UNIT         ?PR?_EEPROMREADCONFIGURATION?SYS
            CODE    D86AH     00ACH     UNIT         ?PR?SQRT?SQRT
            CODE    D916H     00ABH     UNIT         ?PR?_RDA5807MSEEK?RDA5807M
            CODE    D9C1H     00A7H     UNIT         ?PR?_ROW2_ADD_KROW1?ELLIPSOID_FITTING
            CODE    DA68H     00A1H     UNIT         ?PR?OLED_INIT?OLED
            CODE    DB09H     009DH     UNIT         ?PR?_ATAN2?ATAN2
            CODE    DBA6H     009AH     UNIT         ?PR?EXP?EXP
            CODE    DC40H     0099H     UNIT         ?PR?_MOVEBIGGESTELEMENT_TO_TOP?ELLIPSOID_FITTING
            CODE    DCD9H     0099H     UNIT         ?PR?_LSM6DSMENABLEAWT?LSM6DSM
            CODE    DD72H     0099H     UNIT         ?PR?TM4_ISR?BUZZER
            CODE    DE0BH     008CH     UNIT         ?C_C51STARTUP
            CODE    DE97H     0080H     UNIT         ?PR?CALCDATA_INPUT_AVERAGE?ELLIPSOID_FITTING
            CODE    DF17H     007DH     UNIT         ?PR?_CLEARCACHEAREA?DISPLAY
            CODE    DF94H     007AH     UNIT         ?PR?UART2_ISR?PW02
            CODE    E00EH     0077H     UNIT         ?PR?_PW02SETNAME?PW02
            CODE    E085H     0075H     UNIT         ?PR?_EEPROMWRITECONFIGURATION?SYS
            CODE    E0FAH     006DH     UNIT         ?PR?_SENDATCOMMAND?PW02
            CODE    E167H     006CH     UNIT         ?PR?MATRIX_ROWSIMPLIFY?ELLIPSOID_FITTING
            CODE    E1D3H     006BH     UNIT         ?PR?_STRCAT?STRCAT
            CODE    E23EH     0067H     UNIT         ?PR?RDA5807MINIT?RDA5807M
            CODE    E2A5H     0065H     UNIT         ?PR?_PCF8563WRITEDATE?PCF8563
            CODE    E30AH     0063H     UNIT         ?PR?_PW02SETADVT?PW02
            CODE    E36DH     0062H     UNIT         ?PR?RDA5807MREADRGES?RDA5807M
            CODE    E3CFH     0061H     UNIT         ?PR?_K_MUILTPLY_ROW?ELLIPSOID_FITTING
            CODE    E430H     0061H     UNIT         ?PR?_SCREENREFRESHAREA?DISPLAY
            CODE    E491H     005EH     UNIT         ?PR?_PW02SETBUAD?PW02
            CODE    E4EFH     005BH     UNIT         ?PR?_ABS?ELLIPSOID_FITTING
BL51 BANKED LINKER/LOCATER V6.22                                                      08/26/2021  06:15:46  PAGE 5


            CODE    E54AH     005AH     UNIT         ?PR?RDA5807MWRITEREGS?RDA5807M
            CODE    E5A4H     005AH     UNIT         ?PR?LSM6DSMINIT?LSM6DSM
            CODE    E5FEH     0058H     UNIT         ?PR?BME280INIT?BME280
            CODE    E656H     0055H     UNIT         ?PR?HMC5883L_INIT?HMC5883L
            CODE    E6ABH     0055H     UNIT         ?PR?_DRAWDOT?DISPLAY
            CODE    E700H     0052H     UNIT         ?PR?_DISPLAYINIT?DISPLAY
            CODE    E752H     0050H     UNIT         ?PR?INT1_ISR?MAIN
            CODE    E7A2H     004DH     UNIT         ?PR?_PCF8563WRITETIME?PCF8563
            CODE    E7EFH     004DH     UNIT         ?PR?RAND?RAND
            CODE    E83CH     004AH     UNIT         ?PR?_OLED_DRAWBMP?OLED
            CODE    E886H     004AH     UNIT         ?PR?_LSM6DSMENABLEPEDOMETER?LSM6DSM
            CODE    E8D0H     0047H     UNIT         ?PR?_BME280GETSENSORDATA?BME280
            CODE    E917H     0047H     UNIT         ?PR?_I2C_READ_MULTIBYTES?IIC
            CODE    E95EH     0047H     UNIT         ?PR?SYSINIT?SYS
            CODE    E9A5H     0046H     UNIT         ?PR?RDA5807MGETCURRENTFQ?RDA5807M
            CODE    E9EBH     0046H     UNIT         ?PR?RESETMATRIX?ELLIPSOID_FITTING
            CODE    EA31H     0045H     UNIT         ?PR?_EEPROM_READ_N?EEPROM
            CODE    EA76H     0045H     UNIT         ?PR?_EEPROM_WRITE_N?EEPROM
            CODE    EABBH     0044H     UNIT         ?PR?_HMC5883L_SET_CALIBRATION_VALUE?HMC5883L
            CODE    EAFFH     0044H     UNIT         ?C?LDIV
            CODE    EB43H     003FH     UNIT         ?PR?_I2C_NOADDR_WRITE_MULTIBYTES?IIC
            CODE    EB82H     003CH     UNIT         ?PR?_CLEARCACHE?DISPLAY
            CODE    EBBEH     003BH     UNIT         ?PR?ASIN?ASIN
            CODE    EBF9H     003AH     UNIT         ?PR?_PCF8563SETREGISTERBITS?PCF8563
            CODE    EC33H     003AH     UNIT         ?PR?_LSM6DSMRSETREGISTERBITS?LSM6DSM
            CODE    EC6DH     0039H     UNIT         ?PR?RDA5807MGETCURRENTRSSI?RDA5807M
            CODE    ECA6H     0039H     UNIT         ?PR?BUZZERINIT?BUZZER
            CODE    ECDFH     0037H     UNIT         ?PR?_PCF8563ENABLETIMER?PCF8563
            CODE    ED16H     0032H     UNIT         ?PR?SAVESCREEN?DISPLAY
            CODE    ED48H     0031H     UNIT         ?PR?_I2C_NOADDR_READ_MULTIBYTES?IIC
            CODE    ED79H     002FH     UNIT         ?PR?PININIT?SYS
            CODE    EDA8H     002EH     UNIT         ?PR?_PW02GETRXDATA?PW02
            CODE    EDD6H     002BH     UNIT         ?PR?SYSTEMDEEPPOWERDOWN?POWERMANAGE
            CODE    EE01H     0028H     UNIT         ?PR?PW02ENTERATMODE?PW02
            CODE    EE29H     0028H     UNIT         ?PR?PW02EXITATMODE?PW02
            CODE    EE51H     0028H     UNIT         ?PR?_RDA5807MSETVOLUME?RDA5807M
            CODE    EE79H     0027H     UNIT         ?PR?PW02GETRSSI?PW02
            CODE    EEA0H     0027H     UNIT         ?PR?_BME280WRITEBYTE?BME280
            CODE    EEC7H     0027H     UNIT         ?PR?LSM6DSMENABLETAPDETECTION?LSM6DSM
            CODE    EEEEH     0027H     UNIT         ?PR?PUTCHAR?PUTCHAR
            CODE    EF15H     0026H     UNIT         ?PR?_EEPROM_SECTORERASE?EEPROM
            CODE    EF3BH     0025H     UNIT         ?PR?PCF8563DISABLEALARM?PCF8563
            CODE    EF60H     0024H     UNIT         ?PR?_BME280SINGLEMEASUREMENT?BME280
            CODE    EF84H     0024H     UNIT         ?PR?KEYSCAN?MAIN
            CODE    EFA8H     0023H     UNIT         ?PR?I2C_STOP?IIC
            CODE    EFCBH     0022H     UNIT         ?PR?WAIT?IIC
            CODE    EFEDH     0022H     UNIT         ?PR?INT2_ISR?MAIN
            CODE    F00FH     0020H     UNIT         ?CO?ELLIPSOID_FITTING
            CODE    F02FH     001FH     UNIT         ?PR?OLED_CLEAR?OLED
            CODE    F04EH     001EH     UNIT         ?PR?_OLED_SET_POS?OLED
            CODE    F06CH     001EH     UNIT         ?PR?_BME280SETMODE?BME280
            CODE    F08AH     001DH     UNIT         ?PR?_SINGLE_READIIC?IIC
            CODE    F0A7H     001CH     UNIT         ?PR?I2C_RECVACK?IIC
            CODE    F0C3H     001BH     UNIT         ?PR?_ADCREAD?POWERMANAGE
            CODE    F0DEH     001BH     UNIT         ?PR?TM0_ISR?MAIN
            CODE    F0F9H     001AH     UNIT         ?PR?_OLED_WR_BYTE?OLED
            CODE    F113H     001AH     UNIT         ?PR?_DELAY1MS?DELAY
BL51 BANKED LINKER/LOCATER V6.22                                                      08/26/2021  06:15:46  PAGE 6


            CODE    F12DH     0019H     UNIT         ?PR?_DELAY_MS?OLED
            CODE    F146H     0019H     UNIT         ?PR?LSM6DSMGETCURRENTSTEP?LSM6DSM
            CODE    F15FH     0019H     UNIT         ?PR?LSM6DSMRESETSTEPCOUNTER?LSM6DSM
            CODE    F178H     0019H     UNIT         ?PR?UARTINIT?SYS
            CODE    F191H     0017H     UNIT         ?PR?_SCREENSETDIRECTION?DISPLAY
            CODE    F1A8H     0015H     UNIT         ?PR?_PCF8563WRITEBYTE?PCF8563
            CODE    F1BDH     0015H     UNIT         ?PR?_BME280CONTINUOUSMEASUREMENT?BME280
            CODE    F1D2H     0015H     UNIT         ?PR?_SINGLE_WRITEIIC?IIC
            CODE    F1E7H     0015H     UNIT         ?PR?_BUZZERONOFF?BUZZER
            CODE    F1FCH     0015H     UNIT         ?PR?BEE?BUZZER
            CODE    F211H     0015H     UNIT         ?PR?_DELAY1US?DELAY
            CODE    F226H     0014H     UNIT         ?PR?PCF8563INIT?PCF8563
            CODE    F23AH     0013H     UNIT         ?PR?UART2INIT?SYS
            CODE    F24DH     0012H     UNIT         ?PR?PCF8563DISABLETIMER?PCF8563
            CODE    F25FH     0012H     UNIT         ?PR?IIC_INIT?IIC
            CODE    F271H     0011H     UNIT         ?PR?OLED_DISPLAY_ON?OLED
            CODE    F282H     0011H     UNIT         ?PR?_OLED_HORIZENTAL_REVERSE?OLED
            CODE    F293H     0011H     UNIT         ?PR?_OLED_VERTICAL_REVERSE?OLED
            CODE    F2A4H     0011H     UNIT         ?PR?_OLED_INVERSE?OLED
            CODE    F2B5H     0010H     UNIT         ?PR?_PCF8563ENABLECLOCKOUPUT?PCF8563
            CODE    F2C5H     0010H     UNIT         ?PR?CHECKHMC5883LCONNECTION?HMC5883L
            CODE    F2D5H     0010H     UNIT         ?PR?LSM6DSMSOFTRESET?LSM6DSM
            CODE    F2E5H     0010H     UNIT         ?PR?TIMER3INIT?SYS
            CODE    F2F5H     000FH     UNIT         ?PR?LSM6DSMCHECKCONNECTION?LSM6DSM
            CODE    F304H     000FH     UNIT         ?PR?I2C_RECVBYTE?IIC
            CODE    F313H     000FH     UNIT         ?PR?I2C_SENDNAK?IIC
            CODE    F322H     000FH     UNIT         ?PR?BEEBEEBEE?BUZZER
            CODE    F331H     000EH     UNIT         ?PR?_OLED_SET_BRIGHTNESS?OLED
            CODE    F33FH     000EH     UNIT         ?PR?BME280CHECKCONNECTION?BME280
            CODE    F34DH     000EH     UNIT         ?PR?BME280SOFTRESET?BME280
            CODE    F35BH     000EH     UNIT         ?PR?_I2C_SENDBYTE?IIC
            CODE    F369H     000EH     UNIT         ?PR?I2C_SENDACK?IIC
            CODE    F377H     000EH     UNIT         ?PR?DISABLEEEPROM?EEPROM
            CODE    F385H     000DH     UNIT         ?PR?_LSM6DSMWRITEBYTE?LSM6DSM
            CODE    F392H     000DH     UNIT         ?PR?_BATTERYCHARGEENABLE?POWERMANAGE
            CODE    F39FH     000DH     UNIT         ?PR?TIMER0INIT?SYS
            CODE    F3ACH     000CH     UNIT         ?PR?OLED_DISPLAY_OFF?OLED
            CODE    F3B8H     000CH     UNIT         ?PR?SYSTEMPOWERON?POWERMANAGE
            CODE    F3C4H     000CH     UNIT         ?PR?I2C_START?IIC
            CODE    F3D0H     000CH     UNIT         ?PR?INITCONFIG?SYS
            CODE    F3DCH     000BH     UNIT         ?PR?_HMC5883L_SET_MODE?HMC5883L
            CODE    F3E7H     000BH     UNIT         ?PR?_SCREENSETBRIGHTNESS?DISPLAY
            CODE    F3F2H     000AH     UNIT         ?PR?_PW02SETMODE?PW02
            CODE    F3FCH     000AH     UNIT         ?PR?RDA5807MSETMUTE?RDA5807M
            CODE    F406H     000AH     UNIT         ?PR?RDA5807MPOWERUP?RDA5807M
            CODE    F410H     000AH     UNIT         ?PR?RDA5807MPOWERDOWN?RDA5807M
            CODE    F41AH     000AH     UNIT         ?PR?PCF8563READINTSRC?PCF8563
            CODE    F424H     000AH     UNIT         ?PR?_SCREENONOFF?DISPLAY
            CODE    F42EH     0009H     UNIT         ?PR?PW02REST?PW02
            CODE    F437H     0009H     UNIT         ?PR?PCF8563CLEARALARMFLAG?PCF8563
            CODE    F440H     0009H     UNIT         ?PR?PCF8563CLEARTIMERFLAG?PCF8563
            CODE    F449H     0009H     UNIT         ?PR?LSM6DSMENABLEEMBEDDEDFUNC?LSM6DSM
            CODE    F452H     0009H     UNIT         ?PR?LSM6DSMDISABLEPEDOMETER?LSM6DSM
            CODE    F45BH     0009H     UNIT         ?PR?_ENABLEBUZZER?BUZZER
            CODE    F464H     0008H     UNIT         ?PR?_PCF8563READBYTE?PCF8563
            CODE    F46CH     0008H     UNIT         ?PR?_BME280READBYTE?BME280
            CODE    F474H     0008H     UNIT         ?PR?_HMC5883L_READ_BYTE?HMC5883L
BL51 BANKED LINKER/LOCATER V6.22                                                      08/26/2021  06:15:46  PAGE 7


            CODE    F47CH     0008H     UNIT         ?PR?_LSM6DSMREADBYTE?LSM6DSM
            CODE    F484H     0008H     UNIT         ?PR?_LSM6DSMCONFIGACC?LSM6DSM
            CODE    F48CH     0008H     UNIT         ?PR?_LSM6DSMCONFIGGYR?LSM6DSM
            CODE    F494H     0008H     UNIT         ?PR?_LED?SYS
            CODE    F49CH     0007H     UNIT         ?PR?ADCINIT?POWERMANAGE
            CODE    F4A3H     0006H     UNIT         ?CO?BME280
            CODE    F4A9H     0006H     UNIT         ?PR?_ENABLE3V3OUTPUT?POWERMANAGE
            CODE    F4AFH     0003H     UNIT         ?PR?_SCREENSETINVERSE?DISPLAY
            CODE    F4B2H     0003H     UNIT         ?PR?INT0_ISR?MAIN
            CODE    F4B5H     0003H     UNIT         ?PR?INT3_ISR?MAIN



OVERLAY MAP OF MODULE:   ..\Objects\iWatch-v1.1 (PW02)


SEGMENT                                             BIT_GROUP          DATA_GROUP          IDATA_GROUP         XDATA_GRO
>> UP
  +--> CALLED SEGMENT                            START    LENGTH     START    LENGTH     START    LENGTH     START    LE
>> NGTH
------------------------------------------------------------------------------------------------------------------------
>> ----
?PR?TM4_ISR?BUZZER                               -----    -----      -----    -----      -----    -----      -----    --
>> ---
  +--> ?PR?_BUZZERONOFF?BUZZER

*** NEW ROOT ***************************************************

?PR?TM3_IST?MAIN                                 -----    -----      -----    -----      -----    -----      -----    --
>> ---
  +--> ?PR?MCUSOFTRESET?SYS
  +--> ?PR?KEYSCAN?MAIN
  +--> ?PR?BEE?BUZZER
  +--> ?PR?_LED?SYS

?PR?BEE?BUZZER                                   -----    -----      -----    -----      -----    -----      -----    --
>> ---
  +--> ?PR?_BUZZERONOFF?BUZZER

*** NEW ROOT ***************************************************

?PR?INT1_ISR?MAIN                                -----    -----      -----    -----      -----    -----      -----    --
>> ---
  +--> ?PR?BEE?BUZZER
  +--> ?PR?_SCREENONOFF?DISPLAY

?PR?_SCREENONOFF?DISPLAY                         -----    -----      -----    -----      -----    -----      -----    --
>> ---
  +--> ?PR?OLED_DISPLAY_ON?OLED
  +--> ?PR?OLED_DISPLAY_OFF?OLED

?PR?OLED_DISPLAY_ON?OLED                         -----    -----      -----    -----      -----    -----      -----    --
>> ---
  +--> ?PR?_OLED_WR_BYTE?OLED

?PR?OLED_DISPLAY_OFF?OLED                        -----    -----      -----    -----      -----    -----      -----    --
>> ---
BL51 BANKED LINKER/LOCATER V6.22                                                      08/26/2021  06:15:46  PAGE 8


  +--> ?PR?_OLED_WR_BYTE?OLED

*** NEW ROOT ***************************************************

?C_C51STARTUP                                    -----    -----      -----    -----      -----    -----      -----    --
>> ---
  +--> ?PR?MAIN?MAIN
  +--> ?C_INITSEG

?PR?MAIN?MAIN                                    -----    -----      -----    -----      -----    -----      0F66H    00
>> 80H
  +--> ?PR?SYSINIT?SYS
  +--> ?PR?_DISPLAYINIT?DISPLAY
  +--> ?PR?PCF8563INIT?PCF8563
  +--> ?PR?SENSORINIT?MAIN
  +--> ?PR?_CLEARCACHE?DISPLAY
  +--> ?PR?FEEDWATCHDOG?SYS
  +--> ?PR?_SCREENPUSHANIMATION?DISPLAY
  +--> ?PR?_PCF8563READTIME?PCF8563
  +--> ?PR?_DISPLAYTIME?DISPLAY
  +--> ?PR?_CLEARCACHEAREA?DISPLAY
  +--> ?CO?MAIN
  +--> ?PR?_BMPTOCACHE?DISPLAY
  +--> ?PR?PRINTF?PRINTF
  +--> ?PR?_STRCAT?STRCAT
  +--> ?PR?_SHOWSTRING?DISPLAY
  +--> ?PR?SAVESCREEN?DISPLAY
  +--> ?PR?_LSM6DSMCONFIGACC?LSM6DSM
  +--> ?PR?_LSM6DSMCONFIGGYR?LSM6DSM
  +--> ?PR?_LSM6DSMREADGYRANDACC?LSM6DSM
  +--> ?PR?_IMUUPDATE?LSM6DSM
  +--> ?PR?_DRAWSELECTIONFRAME?DISPLAY
  +--> ?PR?_SCREENREFRESHALL?DISPLAY
  +--> ?PR?_PCF8563ENABLECLOCKOUPUT?PCF8563
  +--> ?PR?LSM6DSMGETCURRENTSTEP?LSM6DSM
  +--> ?PR?_BME280CONTINUOUSMEASUREMENT?BME280
  +--> ?PR?_BME280GETSENSORDATA?BME280
  +--> ?PR?_POW?POW
  +--> ?PR?_BME280SETMODE?BME280
  +--> ?PR?RDA5807MPOWERUP?RDA5807M
  +--> ?PR?_RDA5807MSETFQ?RDA5807M
  +--> ?PR?_RDA5807MSETVOLUME?RDA5807M
  +--> ?PR?_RDA5807MSEEK?RDA5807M
  +--> ?PR?RDA5807MPOWERDOWN?RDA5807M
  +--> ?PR?_EEPROMWRITECONFIGURATION?SYS
  +--> ?PR?_HMC5883L_SET_MODE?HMC5883L
  +--> ?PR?_HMC5883L_SET_CALIBRATION_VALUE?H...
  +--> ?PR?_READ_HMC5883L?HMC5883L
  +--> ?PR?_HMC5883L_GET_ANGLEXY?HMC5883L
  +--> ?PR?_DRAWARM?DISPLAY
  +--> ?PR?RESETMATRIX?ELLIPSOID_FITTING
  +--> ?PR?_CALCDATA_INPUT?ELLIPSOID_FITTING
  +--> ?PR?BEE?BUZZER
  +--> ?PR?_ELLIPSOID_FITTING_PROCESS?ELLIPS...
  +--> ?PR?PW02INIT?PW02
  +--> ?PR?_PW02SETMODE?PW02
  +--> ?PR?PW02CHECKCONNECTION?PW02
BL51 BANKED LINKER/LOCATER V6.22                                                      08/26/2021  06:15:46  PAGE 9


  +--> ?PR?_PW02GETRXDATA?PW02
  +--> ?PR?PW02EXITATMODE?PW02
  +--> ?PR?_SCREENSETINVERSE?DISPLAY
  +--> ?PR?_DRAWDOT?DISPLAY
  +--> ?PR?_SCREENSETBRIGHTNESS?DISPLAY
  +--> ?PR?_LED?SYS
  +--> ?PR?_SCREEROLLDOWN?DISPLAY
  +--> ?PR?_SCREEROLLUP?DISPLAY
  +--> ?PR?_PCF8563WRITETIME?PCF8563
  +--> ?PR?_PCF8563WRITEDATE?PCF8563
  +--> ?PR?_PCF8563SETALARM?PCF8563
  +--> ?PR?PCF8563DISABLEALARM?PCF8563
  +--> ?PR?_SCREENSETDIRECTION?DISPLAY
  +--> ?PR?_ENABLEBUZZER?BUZZER
  +--> ?PR?MCUSOFTRESET?SYS
  +--> ?PR?RAND?RAND
  +--> ?PR?_SCREENONOFF?DISPLAY
  +--> ?PR?SYSTEMPOWERON?POWERMANAGE
  +--> ?PR?_PCF8563ENABLETIMER?PCF8563
  +--> ?PR?SYSTEMPOWERDOWN?POWERMANAGE
  +--> ?PR?SYSTEMDEEPPOWERDOWN?POWERMANAGE
  +--> ?PR?_ENABLE3V3OUTPUT?POWERMANAGE
  +--> ?PR?_DELAY1MS?DELAY
  +--> ?PR?PCF8563READINTSRC?PCF8563
  +--> ?PR?PCF8563CLEARALARMFLAG?PCF8563
  +--> ?PR?BEEBEEBEE?BUZZER
  +--> ?PR?PCF8563CLEARTIMERFLAG?PCF8563
  +--> ?PR?GETBATTERYLIFE?POWERMANAGE
  +--> ?PR?LSM6DSMRESETSTEPCOUNTER?LSM6DSM

?PR?SYSINIT?SYS                                  -----    -----      -----    -----      -----    -----      -----    --
>> ---
  +--> ?PR?PININIT?SYS
  +--> ?PR?UARTINIT?SYS
  +--> ?PR?UART2INIT?SYS
  +--> ?PR?TIMER0INIT?SYS
  +--> ?PR?TIMER3INIT?SYS
  +--> ?PR?INITCONFIG?SYS
  +--> ?PR?ADCINIT?POWERMANAGE
  +--> ?PR?IIC_INIT?IIC
  +--> ?PR?ENABLEWATCHDOG?SYS
  +--> ?PR?_EEPROMREADCONFIGURATION?SYS
  +--> ?PR?BUZZERINIT?BUZZER
  +--> ?PR?_ENABLEBUZZER?BUZZER
  +--> ?PR?_LED?SYS
  +--> ?PR?_BATTERYCHARGEENABLE?POWERMANAGE
  +--> ?PR?_DELAY1MS?DELAY
  +--> ?PR?_ENABLE3V3OUTPUT?POWERMANAGE

?PR?_EEPROMREADCONFIGURATION?SYS                 -----    -----      -----    -----      -----    -----      0FE6H    00
>> 06H
  +--> ?PR?_EEPROM_READ_N?EEPROM

?PR?_EEPROM_READ_N?EEPROM                        -----    -----      -----    -----      -----    -----      0FECH    00
>> 07H
  +--> ?PR?DISABLEEEPROM?EEPROM

BL51 BANKED LINKER/LOCATER V6.22                                                      08/26/2021  06:15:46  PAGE 10


?PR?_DISPLAYINIT?DISPLAY                         -----    -----      -----    -----      -----    -----      0FE6H    00
>> 03H
  +--> ?PR?OLED_INIT?OLED
  +--> ?PR?_SCREENSETBRIGHTNESS?DISPLAY
  +--> ?PR?_SCREENSETDIRECTION?DISPLAY
  +--> ?PR?_SCREENSETINVERSE?DISPLAY
  +--> ?PR?_SCREENONOFF?DISPLAY

?PR?OLED_INIT?OLED                               -----    -----      -----    -----      -----    -----      -----    --
>> ---
  +--> ?PR?_DELAY_MS?OLED
  +--> ?PR?_OLED_WR_BYTE?OLED
  +--> ?PR?OLED_CLEAR?OLED
  +--> ?PR?_OLED_SET_POS?OLED

?PR?OLED_CLEAR?OLED                              -----    -----      -----    -----      -----    -----      -----    --
>> ---
  +--> ?PR?_OLED_WR_BYTE?OLED

?PR?_OLED_SET_POS?OLED                           -----    -----      -----    -----      -----    -----      -----    --
>> ---
  +--> ?PR?_OLED_WR_BYTE?OLED

?PR?_SCREENSETBRIGHTNESS?DISPLAY                 -----    -----      -----    -----      -----    -----      -----    --
>> ---
  +--> ?PR?_OLED_SET_BRIGHTNESS?OLED

?PR?_OLED_SET_BRIGHTNESS?OLED                    -----    -----      -----    -----      -----    -----      -----    --
>> ---
  +--> ?PR?_OLED_WR_BYTE?OLED

?PR?_SCREENSETDIRECTION?DISPLAY                  -----    -----      -----    -----      -----    -----      -----    --
>> ---
  +--> ?PR?_OLED_HORIZENTAL_REVERSE?OLED
  +--> ?PR?_OLED_VERTICAL_REVERSE?OLED

?PR?_OLED_HORIZENTAL_REVERSE?OLED                -----    -----      -----    -----      -----    -----      -----    --
>> ---
  +--> ?PR?_OLED_WR_BYTE?OLED

?PR?_OLED_VERTICAL_REVERSE?OLED                  -----    -----      -----    -----      -----    -----      -----    --
>> ---
  +--> ?PR?_OLED_WR_BYTE?OLED

?PR?_SCREENSETINVERSE?DISPLAY                    -----    -----      -----    -----      -----    -----      -----    --
>> ---
  +--> ?PR?_OLED_INVERSE?OLED

?PR?_OLED_INVERSE?OLED                           -----    -----      -----    -----      -----    -----      -----    --
>> ---
  +--> ?PR?_OLED_WR_BYTE?OLED

?PR?PCF8563INIT?PCF8563                          -----    -----      -----    -----      -----    -----      -----    --
>> ---
  +--> ?PR?PCF8563CLEARALARMFLAG?PCF8563
  +--> ?PR?PCF8563CLEARTIMERFLAG?PCF8563
  +--> ?PR?_PCF8563ENABLETIMER?PCF8563
BL51 BANKED LINKER/LOCATER V6.22                                                      08/26/2021  06:15:46  PAGE 11


  +--> ?PR?_PCF8563ENABLECLOCKOUPUT?PCF8563

?PR?PCF8563CLEARALARMFLAG?PCF8563                -----    -----      -----    -----      -----    -----      -----    --
>> ---
  +--> ?PR?_PCF8563SETREGISTERBITS?PCF8563

?PR?_PCF8563SETREGISTERBITS?PCF8563              -----    -----      -----    -----      -----    -----      0FEEH    00
>> 03H
  +--> ?PR?_PCF8563READBYTE?PCF8563
  +--> ?PR?_PCF8563WRITEBYTE?PCF8563

?PR?_PCF8563READBYTE?PCF8563                     -----    -----      -----    -----      -----    -----      -----    --
>> ---
  +--> ?PR?_SINGLE_READIIC?IIC

?PR?_SINGLE_READIIC?IIC                          -----    -----      -----    -----      -----    -----      -----    --
>> ---
  +--> ?PR?I2C_RECVACK?IIC
  +--> ?PR?I2C_START?IIC
  +--> ?PR?_I2C_SENDBYTE?IIC
  +--> ?PR?I2C_RECVBYTE?IIC
  +--> ?PR?I2C_SENDNAK?IIC
  +--> ?PR?I2C_STOP?IIC

?PR?I2C_RECVACK?IIC                              -----    -----      -----    -----      -----    -----      -----    --
>> ---
  +--> ?PR?I2C_START?IIC
  +--> ?PR?_I2C_SENDBYTE?IIC
  +--> ?PR?WAIT?IIC

?PR?I2C_START?IIC                                -----    -----      -----    -----      -----    -----      -----    --
>> ---
  +--> ?PR?WAIT?IIC

?PR?_I2C_SENDBYTE?IIC                            -----    -----      -----    -----      -----    -----      -----    --
>> ---
  +--> ?PR?WAIT?IIC

?PR?I2C_RECVBYTE?IIC                             -----    -----      -----    -----      -----    -----      -----    --
>> ---
  +--> ?PR?WAIT?IIC

?PR?I2C_SENDNAK?IIC                              -----    -----      -----    -----      -----    -----      -----    --
>> ---
  +--> ?PR?WAIT?IIC

?PR?I2C_STOP?IIC                                 -----    -----      -----    -----      -----    -----      -----    --
>> ---
  +--> ?PR?I2C_RECVBYTE?IIC
  +--> ?PR?I2C_SENDNAK?IIC
  +--> ?PR?WAIT?IIC

?PR?_PCF8563WRITEBYTE?PCF8563                    -----    -----      -----    -----      -----    -----      -----    --
>> ---
  +--> ?PR?_SINGLE_WRITEIIC?IIC

?PR?_SINGLE_WRITEIIC?IIC                         -----    -----      -----    -----      -----    -----      -----    --
BL51 BANKED LINKER/LOCATER V6.22                                                      08/26/2021  06:15:46  PAGE 12


>> ---
  +--> ?PR?I2C_START?IIC
  +--> ?PR?I2C_RECVACK?IIC
  +--> ?PR?_I2C_SENDBYTE?IIC
  +--> ?PR?I2C_STOP?IIC

?PR?PCF8563CLEARTIMERFLAG?PCF8563                -----    -----      -----    -----      -----    -----      -----    --
>> ---
  +--> ?PR?_PCF8563SETREGISTERBITS?PCF8563

?PR?_PCF8563ENABLETIMER?PCF8563                  -----    -----      -----    -----      -----    -----      0FE6H    00
>> 02H
  +--> ?PR?_PCF8563SETREGISTERBITS?PCF8563
  +--> ?PR?_PCF8563WRITEBYTE?PCF8563

?PR?_PCF8563ENABLECLOCKOUPUT?PCF8563             -----    -----      -----    -----      -----    -----      -----    --
>> ---
  +--> ?PR?_PCF8563WRITEBYTE?PCF8563

?PR?SENSORINIT?MAIN                              -----    -----      -----    -----      -----    -----      0FE6H    00
>> 04H
  +--> ?PR?BME280INIT?BME280
  +--> ?CO?MAIN
  +--> ?PR?_SHOWSTRING?DISPLAY
  +--> ?PR?HMC5883L_INIT?HMC5883L
  +--> ?PR?LSM6DSMINIT?LSM6DSM
  +--> ?PR?RDA5807MINIT?RDA5807M
  +--> ?PR?_DELAY1MS?DELAY

?PR?BME280INIT?BME280                            -----    -----      -----    -----      -----    -----      0FEAH    00
>> 01H
  +--> ?PR?_DELAY1MS?DELAY
  +--> ?PR?BME280CHECKCONNECTION?BME280
  +--> ?PR?BME280SOFTRESET?BME280
  +--> ?PR?BME280READCOMPENSATIONPARAMETER?B...
  +--> ?PR?_BME280WRITEBYTE?BME280

?PR?BME280CHECKCONNECTION?BME280                 -----    -----      -----    -----      -----    -----      -----    --
>> ---
  +--> ?PR?_BME280READBYTE?BME280

?PR?_BME280READBYTE?BME280                       -----    -----      -----    -----      -----    -----      -----    --
>> ---
  +--> ?PR?_SINGLE_READIIC?IIC

?PR?BME280SOFTRESET?BME280                       -----    -----      -----    -----      -----    -----      -----    --
>> ---
  +--> ?PR?_BME280WRITEBYTE?BME280
  +--> ?PR?_DELAY1MS?DELAY

?PR?_BME280WRITEBYTE?BME280                      -----    -----      -----    -----      -----    -----      -----    --
>> ---
  +--> ?PR?_SINGLE_WRITEIIC?IIC

?PR?BME280READCOMPENSATIONPARAMETER?B...         -----    -----      -----    -----      -----    -----      0FEBH    00
>> 21H
  +--> ?PR?_I2C_READ_MULTIBYTES?IIC
BL51 BANKED LINKER/LOCATER V6.22                                                      08/26/2021  06:15:46  PAGE 13



?PR?_I2C_READ_MULTIBYTES?IIC                     -----    -----      -----    -----      -----    -----      100CH    00
>> 06H
  +--> ?PR?I2C_RECVACK?IIC
  +--> ?PR?I2C_START?IIC
  +--> ?PR?_I2C_SENDBYTE?IIC
  +--> ?PR?I2C_RECVBYTE?IIC
  +--> ?PR?I2C_SENDACK?IIC
  +--> ?PR?I2C_STOP?IIC

?PR?I2C_SENDACK?IIC                              -----    -----      -----    -----      -----    -----      -----    --
>> ---
  +--> ?PR?WAIT?IIC

?PR?_SHOWSTRING?DISPLAY                          -----    -----      0025H    000AH      -----    -----      0FEAH    00
>> 0BH
  +--> ?CO?DISPLAY
  +--> ?PR?_SCREEROLLUP?DISPLAY
  +--> ?PR?_CLEARCACHE?DISPLAY
  +--> ?PR?_SCREENREFRESHAREA?DISPLAY

?PR?_SCREEROLLUP?DISPLAY                         -----    -----      002FH    0008H      -----    -----      0FF5H    00
>> 04H
  +--> ?PR?_OLED_DRAWBMP?OLED

?PR?_OLED_DRAWBMP?OLED                           -----    -----      0037H    0004H      -----    -----      -----    --
>> ---
  +--> ?PR?_OLED_WR_BYTE?OLED

?PR?_CLEARCACHE?DISPLAY                          -----    -----      002FH    0002H      -----    -----      0FF5H    00
>> 03H

?PR?_SCREENREFRESHAREA?DISPLAY                   -----    -----      002FH    0004H      -----    -----      0FF5H    00
>> 04H
  +--> ?PR?_OLED_SET_POS?OLED
  +--> ?PR?_OLED_WR_BYTE?OLED

?PR?HMC5883L_INIT?HMC5883L                       -----    -----      -----    -----      -----    -----      0FEAH    00
>> 01H
  +--> ?PR?CHECKHMC5883LCONNECTION?HMC5883L
  +--> ?PR?_DELAY1MS?DELAY
  +--> ?PR?_HMC5883L_WRITE_BYTE?HMC5883L

?PR?CHECKHMC5883LCONNECTION?HMC5883L             -----    -----      -----    -----      -----    -----      -----    --
>> ---
  +--> ?PR?_HMC5883L_READ_BYTE?HMC5883L

?PR?_HMC5883L_READ_BYTE?HMC5883L                 -----    -----      -----    -----      -----    -----      -----    --
>> ---
  +--> ?PR?_SINGLE_READIIC?IIC

?PR?_HMC5883L_WRITE_BYTE?HMC5883L                -----    -----      -----    -----      -----    -----      -----    --
>> ---
  +--> ?PR?_SINGLE_WRITEIIC?IIC

?PR?LSM6DSMINIT?LSM6DSM                          -----    -----      -----    -----      -----    -----      0FEAH    00
>> 02H
BL51 BANKED LINKER/LOCATER V6.22                                                      08/26/2021  06:15:46  PAGE 14


  +--> ?PR?_DELAY1MS?DELAY
  +--> ?PR?LSM6DSMCHECKCONNECTION?LSM6DSM
  +--> ?PR?LSM6DSMSOFTRESET?LSM6DSM
  +--> ?PR?_LSM6DSMCONFIGACC?LSM6DSM
  +--> ?PR?_LSM6DSMCONFIGGYR?LSM6DSM
  +--> ?PR?_LSM6DSMENABLEAWT?LSM6DSM
  +--> ?PR?LSM6DSMENABLETAPDETECTION?LSM6DSM
  +--> ?PR?_LSM6DSMENABLEPEDOMETER?LSM6DSM
  +--> ?PR?LSM6DSMENABLEEMBEDDEDFUNC?LSM6DSM

?PR?LSM6DSMCHECKCONNECTION?LSM6DSM               -----    -----      -----    -----      -----    -----      -----    --
>> ---
  +--> ?PR?_LSM6DSMREADBYTE?LSM6DSM

?PR?_LSM6DSMREADBYTE?LSM6DSM                     -----    -----      -----    -----      -----    -----      -----    --
>> ---
  +--> ?PR?_SINGLE_READIIC?IIC

?PR?LSM6DSMSOFTRESET?LSM6DSM                     -----    -----      -----    -----      -----    -----      -----    --
>> ---
  +--> ?PR?_LSM6DSMRSETREGISTERBITS?LSM6DSM
  +--> ?PR?_DELAY1MS?DELAY

?PR?_LSM6DSMRSETREGISTERBITS?LSM6DSM             -----    -----      -----    -----      -----    -----      0FEFH    00
>> 03H
  +--> ?PR?_LSM6DSMREADBYTE?LSM6DSM
  +--> ?PR?_LSM6DSMWRITEBYTE?LSM6DSM

?PR?_LSM6DSMWRITEBYTE?LSM6DSM                    -----    -----      -----    -----      -----    -----      -----    --
>> ---
  +--> ?PR?_SINGLE_WRITEIIC?IIC

?PR?_LSM6DSMCONFIGACC?LSM6DSM                    -----    -----      -----    -----      -----    -----      -----    --
>> ---
  +--> ?PR?_LSM6DSMWRITEBYTE?LSM6DSM

?PR?_LSM6DSMCONFIGGYR?LSM6DSM                    -----    -----      -----    -----      -----    -----      -----    --
>> ---
  +--> ?PR?_LSM6DSMWRITEBYTE?LSM6DSM

?PR?_LSM6DSMENABLEAWT?LSM6DSM                    -----    -----      -----    -----      -----    -----      0FECH    00
>> 02H
  +--> ?PR?SIN?SIN
  +--> ?PR?_LSM6DSMWRITEBYTE?LSM6DSM
  +--> ?PR?_LSM6DSMRSETREGISTERBITS?LSM6DSM

?PR?SIN?SIN                                      0022H.6  0000H.1    -----    -----      -----    -----      0FFDH    00
>> 04H

?PR?LSM6DSMENABLETAPDETECTION?LSM6DSM            -----    -----      -----    -----      -----    -----      -----    --
>> ---
  +--> ?PR?_LSM6DSMRSETREGISTERBITS?LSM6DSM
  +--> ?PR?_LSM6DSMWRITEBYTE?LSM6DSM

?PR?_LSM6DSMENABLEPEDOMETER?LSM6DSM              -----    -----      -----    -----      -----    -----      0FECH    00
>> 03H
  +--> ?PR?_LSM6DSMWRITEBYTE?LSM6DSM
BL51 BANKED LINKER/LOCATER V6.22                                                      08/26/2021  06:15:46  PAGE 15


  +--> ?PR?_LSM6DSMRSETREGISTERBITS?LSM6DSM

?PR?LSM6DSMENABLEEMBEDDEDFUNC?LSM6DSM            -----    -----      -----    -----      -----    -----      -----    --
>> ---
  +--> ?PR?_LSM6DSMRSETREGISTERBITS?LSM6DSM

?PR?RDA5807MINIT?RDA5807M                        -----    -----      -----    -----      -----    -----      -----    --
>> ---
  +--> ?PR?RDA5807MWRITEREGS?RDA5807M
  +--> ?PR?_DELAY1MS?DELAY

?PR?RDA5807MWRITEREGS?RDA5807M                   -----    -----      -----    -----      -----    -----      0FEAH    00
>> 08H
  +--> ?PR?_I2C_NOADDR_WRITE_MULTIBYTES?IIC

?PR?_I2C_NOADDR_WRITE_MULTIBYTES?IIC             -----    -----      -----    -----      -----    -----      0FF2H    00
>> 03H
  +--> ?PR?I2C_START?IIC
  +--> ?PR?_I2C_SENDBYTE?IIC
  +--> ?PR?I2C_RECVACK?IIC
  +--> ?PR?I2C_STOP?IIC

?PR?_SCREENPUSHANIMATION?DISPLAY                 -----    -----      0025H    0008H      -----    -----      0FE6H    00
>> 04H
  +--> ?PR?_OLED_DRAWBMP?OLED

?PR?_PCF8563READTIME?PCF8563                     -----    -----      -----    -----      -----    -----      0FE6H    00
>> 0AH
  +--> ?PR?_I2C_READ_MULTIBYTES?IIC

?PR?_DISPLAYTIME?DISPLAY                         -----    -----      -----    -----      -----    -----      0FE6H    00
>> 12H
  +--> ?CO?DISPLAY
  +--> ?PR?_OLED_DRAWBMP?OLED

?PR?_CLEARCACHEAREA?DISPLAY                      -----    -----      0025H    0006H      -----    -----      0FE6H    00
>> 07H

?PR?_BMPTOCACHE?DISPLAY                          -----    -----      0025H    0008H      -----    -----      0FE6H    00
>> 0BH

?PR?PRINTF?PRINTF                                0022H.6  0001H.1    0025H    0005H      -----    -----      1019H    00
>> 30H
  +--> ?PR?PUTCHAR?PUTCHAR

?PR?_STRCAT?STRCAT                               -----    -----      -----    -----      -----    -----      1006H    00
>> 09H

?PR?SAVESCREEN?DISPLAY                           -----    -----      0025H    0002H      -----    -----      -----    --
>> ---

?PR?_LSM6DSMREADGYRANDACC?LSM6DSM                -----    -----      -----    -----      -----    -----      0FE6H    00
>> 0FH
  +--> ?PR?_I2C_READ_MULTIBYTES?IIC

?PR?_IMUUPDATE?LSM6DSM                           -----    -----      0025H    0004H      003BH    0030H      0FE6H    00
>> 03H
BL51 BANKED LINKER/LOCATER V6.22                                                      08/26/2021  06:15:46  PAGE 16


  +--> ?PR?SQRT?SQRT
  +--> ?PR?ASIN?ASIN
  +--> ?PR?ATAN?ATAN

?PR?SQRT?SQRT                                    -----    -----      -----    -----      -----    -----      1019H    00
>> 04H

?PR?ASIN?ASIN                                    -----    -----      -----    -----      -----    -----      -----    --
>> ---
  +--> ?PR?SQRT?SQRT
  +--> ?PR?ATAN?ATAN

?PR?ATAN?ATAN                                    0022H.6  0000H.2    -----    -----      -----    -----      1005H    00
>> 04H

?PR?_DRAWSELECTIONFRAME?DISPLAY                  -----    -----      -----    -----      -----    -----      -----    --
>> ---
  +--> ?PR?_DRAWDOT?DISPLAY

?PR?_SCREENREFRESHALL?DISPLAY                    -----    -----      -----    -----      -----    -----      -----    --
>> ---
  +--> ?PR?_OLED_DRAWBMP?OLED

?PR?LSM6DSMGETCURRENTSTEP?LSM6DSM                -----    -----      -----    -----      -----    -----      0FE6H    00
>> 01H
  +--> ?PR?_LSM6DSMREADBYTE?LSM6DSM

?PR?_BME280CONTINUOUSMEASUREMENT?BME280          -----    -----      -----    -----      -----    -----      -----    --
>> ---
  +--> ?PR?_BME280WRITEBYTE?BME280
  +--> ?PR?_BME280SETMODE?BME280

?PR?_BME280SETMODE?BME280                        -----    -----      -----    -----      -----    -----      -----    --
>> ---
  +--> ?PR?_BME280WRITEBYTE?BME280

?PR?_BME280GETSENSORDATA?BME280                  -----    -----      -----    -----      -----    -----      0FE6H    00
>> 03H
  +--> ?PR?BME280READSENSORRAWDATA?BME280
  +--> ?PR?COMPENSATE_TEMPERATURE?BME280
  +--> ?PR?COMPENSATE_PRESSURE?BME280
  +--> ?PR?COMPENSATE_HUMIDITY?BME280

?PR?BME280READSENSORRAWDATA?BME280               -----    -----      -----    -----      -----    -----      0FE9H    00
>> 08H
  +--> ?PR?_I2C_READ_MULTIBYTES?IIC

?PR?COMPENSATE_TEMPERATURE?BME280                -----    -----      -----    -----      -----    -----      0FE9H    00
>> 14H

?PR?COMPENSATE_PRESSURE?BME280                   -----    -----      -----    -----      -----    -----      0FE9H    00
>> 18H

?PR?COMPENSATE_HUMIDITY?BME280                   -----    -----      -----    -----      -----    -----      0FE9H    00
>> 24H

?PR?_POW?POW                                     -----    -----      -----    -----      -----    -----      0FE6H    00
BL51 BANKED LINKER/LOCATER V6.22                                                      08/26/2021  06:15:46  PAGE 17


>> 0AH
  +--> ?PR?LOG?LOG
  +--> ?PR?EXP?EXP

?PR?LOG?LOG                                      0022H.6  0000H.1    -----    -----      -----    -----      0FF0H    00
>> 04H

?PR?RDA5807MPOWERUP?RDA5807M                     -----    -----      -----    -----      -----    -----      -----    --
>> ---
  +--> ?PR?RDA5807MWRITEREGS?RDA5807M

?PR?_RDA5807MSETFQ?RDA5807M                      -----    -----      -----    -----      -----    -----      0FE6H    00
>> 04H
  +--> ?PR?RDA5807MWRITEREGS?RDA5807M
  +--> ?PR?_DELAY1MS?DELAY
  +--> ?PR?RDA5807MREADRGES?RDA5807M

?PR?RDA5807MREADRGES?RDA5807M                    -----    -----      -----    -----      -----    -----      0FEAH    00
>> 04H
  +--> ?PR?_I2C_NOADDR_READ_MULTIBYTES?IIC

?PR?_I2C_NOADDR_READ_MULTIBYTES?IIC              -----    -----      -----    -----      -----    -----      0FEEH    00
>> 03H
  +--> ?PR?I2C_START?IIC
  +--> ?PR?_I2C_SENDBYTE?IIC
  +--> ?PR?I2C_RECVACK?IIC
  +--> ?PR?I2C_STOP?IIC

?PR?_RDA5807MSETVOLUME?RDA5807M                  -----    -----      -----    -----      -----    -----      -----    --
>> ---
  +--> ?PR?RDA5807MWRITEREGS?RDA5807M

?PR?_RDA5807MSEEK?RDA5807M                       -----    -----      -----    -----      -----    -----      -----    --
>> ---
  +--> ?PR?RDA5807MWRITEREGS?RDA5807M
  +--> ?PR?RDA5807MREADRGES?RDA5807M

?PR?RDA5807MPOWERDOWN?RDA5807M                   -----    -----      -----    -----      -----    -----      -----    --
>> ---
  +--> ?PR?RDA5807MWRITEREGS?RDA5807M

?PR?_EEPROMWRITECONFIGURATION?SYS                -----    -----      -----    -----      -----    -----      0FE6H    00
>> 05H
  +--> ?PR?_EEPROM_SECTORERASE?EEPROM
  +--> ?PR?_EEPROM_WRITE_N?EEPROM

?PR?_EEPROM_SECTORERASE?EEPROM                   -----    -----      -----    -----      -----    -----      -----    --
>> ---
  +--> ?PR?DISABLEEEPROM?EEPROM

?PR?_EEPROM_WRITE_N?EEPROM                       -----    -----      -----    -----      -----    -----      0FEBH    00
>> 07H
  +--> ?PR?DISABLEEEPROM?EEPROM

?PR?_HMC5883L_SET_MODE?HMC5883L                  -----    -----      -----    -----      -----    -----      -----    --
>> ---
  +--> ?PR?_HMC5883L_WRITE_BYTE?HMC5883L
BL51 BANKED LINKER/LOCATER V6.22                                                      08/26/2021  06:15:46  PAGE 18



?PR?_HMC5883L_SET_CALIBRATION_VALUE?H...         -----    -----      -----    -----      -----    -----      0FE6H    00
>> 0EH

?PR?_READ_HMC5883L?HMC5883L                      -----    -----      -----    -----      -----    -----      0FE6H    00
>> 09H
  +--> ?PR?_I2C_READ_MULTIBYTES?IIC

?PR?_HMC5883L_GET_ANGLEXY?HMC5883L               -----    -----      -----    -----      -----    -----      0FE6H    00
>> 17H
  +--> ?PR?SIN?SIN
  +--> ?PR?_ATAN2?ATAN2

?PR?_ATAN2?ATAN2                                 -----    -----      -----    -----      -----    -----      0FFDH    00
>> 08H
  +--> ?PR?ATAN?ATAN

?PR?_DRAWARM?DISPLAY                             -----    -----      -----    -----      -----    -----      0FE6H    00
>> 15H
  +--> ?PR?SIN?SIN
  +--> ?PR?SQRT?SQRT
  +--> ?PR?_DRAWLINE?DISPLAY

?PR?_DRAWLINE?DISPLAY                            -----    -----      -----    -----      -----    -----      0FFBH    00
>> 0CH
  +--> ?PR?_DRAWDOT?DISPLAY

?PR?RESETMATRIX?ELLIPSOID_FITTING                -----    -----      -----    -----      -----    -----      0FE6H    00
>> 02H

?PR?_CALCDATA_INPUT?ELLIPSOID_FITTING            -----    -----      -----    -----      -----    -----      0FE6H    00
>> 2AH

?PR?_ELLIPSOID_FITTING_PROCESS?ELLIPS...         -----    -----      -----    -----      -----    -----      0FE6H    00
>> 33H
  +--> ?PR?CALCDATA_INPUT_AVERAGE?ELLIPSOID_...
  +--> ?PR?MATRIX_GAUSSELIMINATION?ELLIPSOID...
  +--> ?CO?ELLIPSOID_FITTING
  +--> ?PR?PRINTF?PRINTF
  +--> ?PR?MATRIX_ROWSIMPLIFY?ELLIPSOID_FITTING
  +--> ?PR?_MATRIX_SOLVE?ELLIPSOID_FITTING
  +--> ?PR?SQRT?SQRT

?PR?CALCDATA_INPUT_AVERAGE?ELLIPSOID_...         -----    -----      -----    -----      -----    -----      1019H    00
>> 02H

?PR?MATRIX_GAUSSELIMINATION?ELLIPSOID...         -----    -----      -----    -----      -----    -----      1019H    00
>> 06H
  +--> ?PR?_MOVEBIGGESTELEMENT_TO_TOP?ELLIPS...
  +--> ?PR?_ROW2_ADD_KROW1?ELLIPSOID_FITTING

?PR?_MOVEBIGGESTELEMENT_TO_TOP?ELLIPS...         -----    -----      -----    -----      -----    -----      101FH    00
>> 06H
  +--> ?PR?_ABS?ELLIPSOID_FITTING
  +--> ?PR?_ROW2_SWOP_ROW1?ELLIPSOID_FITTING

?PR?_ABS?ELLIPSOID_FITTING                       -----    -----      -----    -----      -----    -----      1025H    00
BL51 BANKED LINKER/LOCATER V6.22                                                      08/26/2021  06:15:46  PAGE 19


>> 04H

?PR?_ROW2_SWOP_ROW1?ELLIPSOID_FITTING            -----    -----      -----    -----      -----    -----      1025H    00
>> 09H

?PR?_ROW2_ADD_KROW1?ELLIPSOID_FITTING            -----    -----      -----    -----      -----    -----      101FH    00
>> 09H

?PR?MATRIX_ROWSIMPLIFY?ELLIPSOID_FITTING         -----    -----      -----    -----      -----    -----      1019H    00
>> 05H
  +--> ?PR?_K_MUILTPLY_ROW?ELLIPSOID_FITTING

?PR?_K_MUILTPLY_ROW?ELLIPSOID_FITTING            -----    -----      -----    -----      -----    -----      101EH    00
>> 07H

?PR?_MATRIX_SOLVE?ELLIPSOID_FITTING              -----    -----      -----    -----      -----    -----      1019H    00
>> 08H

?PR?PW02INIT?PW02                                -----    -----      -----    -----      -----    -----      0FE6H    00
>> 01H
  +--> ?PR?_DELAY1MS?DELAY
  +--> ?PR?PW02ENTERATMODE?PW02
  +--> ?PR?_SHOWSTRING?DISPLAY
  +--> ?PR?_PW02SETBUAD?PW02
  +--> ?CO?PW02
  +--> ?PR?_PW02SETNAME?PW02
  +--> ?PR?_PW02SETADVT?PW02
  +--> ?PR?PW02EXITATMODE?PW02

?PR?PW02ENTERATMODE?PW02                         -----    -----      -----    -----      -----    -----      -----    --
>> ---
  +--> ?CO?PW02
  +--> ?PR?_SENDATCOMMAND?PW02

?PR?_SENDATCOMMAND?PW02                          -----    -----      -----    -----      -----    -----      1006H    00
>> 09H
  +--> ?PR?_UART2SENDSTR?PW02
  +--> ?PR?_DELAY1MS?DELAY

?PR?_UART2SENDSTR?PW02                           -----    -----      -----    -----      -----    -----      100FH    00
>> 03H

?PR?_PW02SETBUAD?PW02                            -----    -----      -----    -----      -----    -----      0FE7H    00
>> 0DH
  +--> ?CO?PW02
  +--> ?PR?PRINTF?PRINTF
  +--> ?PR?_SENDATCOMMAND?PW02

?PR?_PW02SETNAME?PW02                            -----    -----      -----    -----      -----    -----      0FE7H    00
>> 1FH
  +--> ?CO?PW02
  +--> ?PR?_STRCAT?STRCAT
  +--> ?PR?_SENDATCOMMAND?PW02

?PR?_PW02SETADVT?PW02                            -----    -----      -----    -----      -----    -----      0FE7H    00
>> 12H
  +--> ?CO?PW02
BL51 BANKED LINKER/LOCATER V6.22                                                      08/26/2021  06:15:46  PAGE 20


  +--> ?PR?PRINTF?PRINTF
  +--> ?PR?_SENDATCOMMAND?PW02

?PR?PW02EXITATMODE?PW02                          -----    -----      -----    -----      -----    -----      -----    --
>> ---
  +--> ?CO?PW02
  +--> ?PR?_SENDATCOMMAND?PW02

?PR?PW02CHECKCONNECTION?PW02                     -----    -----      -----    -----      -----    -----      0FE6H    00
>> 01H
  +--> ?PR?_DELAY1MS?DELAY
  +--> ?PR?_CLEARCACHE?DISPLAY
  +--> ?PR?PW02ENTERATMODE?PW02
  +--> ?PR?_SHOWSTRING?DISPLAY
  +--> ?PR?PW02GETRSSI?PW02
  +--> ?PR?PW02EXITATMODE?PW02

?PR?PW02GETRSSI?PW02                             -----    -----      -----    -----      -----    -----      -----    --
>> ---
  +--> ?CO?PW02
  +--> ?PR?_SENDATCOMMAND?PW02

?PR?_PW02GETRXDATA?PW02                          -----    -----      -----    -----      -----    -----      0FE6H    00
>> 03H

?PR?_SCREEROLLDOWN?DISPLAY                       -----    -----      0025H    0008H      -----    -----      0FE6H    00
>> 04H
  +--> ?PR?_OLED_DRAWBMP?OLED

?PR?_PCF8563WRITETIME?PCF8563                    -----    -----      -----    -----      -----    -----      0FE6H    00
>> 02H
  +--> ?PR?_PCF8563WRITEBYTE?PCF8563

?PR?_PCF8563WRITEDATE?PCF8563                    -----    -----      -----    -----      -----    -----      0FE6H    00
>> 05H
  +--> ?PR?_PCF8563WRITEBYTE?PCF8563

?PR?_PCF8563SETALARM?PCF8563                     -----    -----      -----    -----      -----    -----      0FE6H    00
>> 08H
  +--> ?PR?_PCF8563WRITEBYTE?PCF8563
  +--> ?PR?_PCF8563SETREGISTERBITS?PCF8563

?PR?PCF8563DISABLEALARM?PCF8563                  -----    -----      -----    -----      -----    -----      -----    --
>> ---
  +--> ?PR?_PCF8563SETREGISTERBITS?PCF8563

?PR?SYSTEMPOWERON?POWERMANAGE                    -----    -----      -----    -----      -----    -----      -----    --
>> ---
  +--> ?PR?PININIT?SYS

?PR?SYSTEMPOWERDOWN?POWERMANAGE                  -----    -----      -----    -----      -----    -----      0FE6H    00
>> 01H

?PR?PCF8563READINTSRC?PCF8563                    -----    -----      -----    -----      -----    -----      -----    --
>> ---
  +--> ?PR?_PCF8563READBYTE?PCF8563

BL51 BANKED LINKER/LOCATER V6.22                                                      08/26/2021  06:15:46  PAGE 21


?PR?GETBATTERYLIFE?POWERMANAGE                   -----    -----      -----    -----      -----    -----      0FE6H    00
>> 09H
  +--> ?PR?GETBATTERYVOLTAGE?POWERMANAGE

?PR?GETBATTERYVOLTAGE?POWERMANAGE                -----    -----      -----    -----      -----    -----      0FEFH    00
>> 08H
  +--> ?PR?_ADCREAD?POWERMANAGE

?PR?LSM6DSMRESETSTEPCOUNTER?LSM6DSM              -----    -----      -----    -----      -----    -----      -----    --
>> ---
  +--> ?PR?_LSM6DSMRSETREGISTERBITS?LSM6DSM
  +--> ?PR?_DELAY1MS?DELAY



SYMBOL TABLE OF MODULE:  ..\Objects\iWatch-v1.1 (PW02)

  VALUE           TYPE          NAME
  ----------------------------------

  -------         MODULE        PW02
  C:0000H         SYMBOL        _ICE_DUMMY_
  C:DF94H         PUBLIC        UART2_Isr
  D:0080H         PUBLIC        P0
  D:0090H         PUBLIC        P1
  D:00A0H         PUBLIC        P2
  D:00B0H         PUBLIC        P3
  C:D32DH         PUBLIC        PW02CheckConnection
  D:00C0H         PUBLIC        P4
  D:00C8H         PUBLIC        P5
  D:00E8H         PUBLIC        P6
  D:00F8H         PUBLIC        P7
  X:1123H         PUBLIC        rx_buf
  D:00A8H         PUBLIC        IE
  C:005EH         PUBLIC        _Uart2SendStr
  D:00B8H         PUBLIC        IP
  C:C9F2H         PUBLIC        PW02Init
  D:00D8H         PUBLIC        CCON
  C:EE01H         PUBLIC        PW02EnterATMode
  C:F42EH         PUBLIC        PW02Rest
  D:0098H         PUBLIC        SCON
  D:0088H         PUBLIC        TCON
  C:E491H         PUBLIC        _PW02SetBuad
  B:0090H.6       PUBLIC        P16
  C:E00EH         PUBLIC        _PW02SetName
  C:F3F2H         PUBLIC        _PW02SetMode
  C:D621H         SYMBOL        _?ix1000
  C:D62DH         SYMBOL        _?ix1001
  C:D63DH         SYMBOL        _?ix1002
  B:0023H.7       PUBLIC        busy
  C:EE29H         PUBLIC        PW02ExitATMode
  D:009BH         PUBLIC        S2BUF
  B:0024H.0       PUBLIC        receive_flag
  B:0090H.6       PUBLIC        PW02_SLEEP
  C:E100H         PUBLIC        _SendATCommand
  D:009AH         PUBLIC        S2CON
  C:E30AH         PUBLIC        _PW02SetADVT
BL51 BANKED LINKER/LOCATER V6.22                                                      08/26/2021  06:15:46  PAGE 22


  C:EE79H         PUBLIC        PW02GetRSSI
  C:EDA8H         PUBLIC        _PW02GetRxData
  X:11A3H         PUBLIC        rx_count
  D:00D0H         PUBLIC        PSW
  -------         PROC          _UART2SENDSTR
  X:100FH         SYMBOL        p
  C:005EH         LINE#         16
  C:0069H         LINE#         17
  C:0069H         LINE#         18
  C:0079H         LINE#         19
  C:0079H         LINE#         20
  C:007CH         LINE#         21
  C:007EH         LINE#         22
  C:0093H         LINE#         23
  C:0095H         LINE#         24
  C:009AH         LINE#         25
  -------         ENDPROC       _UART2SENDSTR
  -------         PROC          UART2_ISR
  C:DF94H         LINE#         26
  C:DF9FH         LINE#         28
  C:DFA4H         LINE#         29
  C:DFA4H         LINE#         30
  C:DFA7H         LINE#         31
  C:DFA9H         LINE#         32
  C:DFA9H         LINE#         33
  C:DFAEH         LINE#         34
  C:DFAEH         LINE#         35
  C:DFB1H         LINE#         36
  C:DFC5H         LINE#         37
  C:DFD7H         LINE#         38
  C:DFD7H         LINE#         39
  C:DFE8H         LINE#         40
  C:DFF2H         LINE#         42
  C:DFFEH         LINE#         43
  C:E000H         LINE#         44
  C:E005H         LINE#         45
  C:E005H         LINE#         46
  C:E005H         LINE#         47
  -------         ENDPROC       UART2_ISR
  -------         PROC          _PW02GETRXDATA
  X:0FE6H         SYMBOL        buf
  C:EDA8H         LINE#         48
  C:EDB3H         LINE#         49
  C:EDB3H         LINE#         50
  C:EDB6H         LINE#         51
  C:EDB6H         LINE#         52
  C:EDB8H         LINE#         53
  C:EDD0H         LINE#         54
  C:EDD3H         LINE#         55
  C:EDD3H         LINE#         57
  C:EDD5H         LINE#         58
  -------         ENDPROC       _PW02GETRXDATA
  C:E0FCH         SYMBOL        L?0054
  -------         PROC          L?0053
  -------         ENDPROC       L?0053
  C:E0FCH         SYMBOL        L?0054
  -------         PROC          _SENDATCOMMAND
BL51 BANKED LINKER/LOCATER V6.22                                                      08/26/2021  06:15:46  PAGE 23


  X:1006H         SYMBOL        command
  X:1009H         SYMBOL        retry_times
  X:100BH         SYMBOL        expected_response
  X:100EH         SYMBOL        response_len
  C:E100H         LINE#         59
  C:E113H         LINE#         60
  C:E113H         LINE#         61
  C:E115H         LINE#         62
  C:E115H         LINE#         63
  C:E117H         LINE#         64
  C:E11AH         LINE#         65
  C:E11AH         LINE#         66
  C:E128H         LINE#         67
  C:E12AH         LINE#         68
  C:E138H         LINE#         69
  C:E13FH         LINE#         70
  C:E141H         LINE#         71
  C:E143H         LINE#         72
  C:E161H         LINE#         73
  C:E164H         LINE#         75
  C:E166H         LINE#         76
  -------         ENDPROC       _SENDATCOMMAND
  -------         PROC          PW02ENTERATMODE
  C:EE01H         LINE#         77
  C:EE01H         LINE#         78
  C:EE01H         LINE#         79
  C:EE23H         LINE#         80
  C:EE26H         LINE#         82
  C:EE28H         LINE#         83
  -------         ENDPROC       PW02ENTERATMODE
  -------         PROC          PW02EXITATMODE
  C:EE29H         LINE#         84
  C:EE29H         LINE#         85
  C:EE29H         LINE#         86
  C:EE4BH         LINE#         87
  C:EE4EH         LINE#         89
  C:EE50H         LINE#         90
  -------         ENDPROC       PW02EXITATMODE
  -------         PROC          _PW02SETBUAD
  X:0FE7H         SYMBOL        baud_num
  -------         DO            
  X:0FE8H         SYMBOL        str
  -------         ENDDO         
  C:E491H         LINE#         91
  C:E496H         LINE#         92
  C:E496H         LINE#         93
  C:E4A9H         LINE#         94
  C:E4CDH         LINE#         95
  C:E4E9H         LINE#         96
  C:E4ECH         LINE#         98
  C:E4EEH         LINE#         99
  -------         ENDPROC       _PW02SETBUAD
  -------         PROC          _PW02SETADVT
  X:0FE7H         SYMBOL        time_in_ms
  -------         DO            
  X:0FE9H         SYMBOL        str
  -------         ENDDO         
BL51 BANKED LINKER/LOCATER V6.22                                                      08/26/2021  06:15:46  PAGE 24


  C:E30AH         LINE#         100
  C:E312H         LINE#         101
  C:E312H         LINE#         102
  C:E325H         LINE#         103
  C:E34BH         LINE#         104
  C:E367H         LINE#         105
  C:E36AH         LINE#         107
  C:E36CH         LINE#         108
  -------         ENDPROC       _PW02SETADVT
  -------         PROC          _PW02SETNAME
  X:0FE7H         SYMBOL        name
  -------         DO            
  X:0FEAH         SYMBOL        str
  -------         ENDDO         
  C:E00EH         LINE#         109
  C:E019H         LINE#         110
  C:E019H         LINE#         111
  C:E02CH         LINE#         112
  C:E04AH         LINE#         113
  C:E061H         LINE#         114
  C:E07FH         LINE#         115
  C:E082H         LINE#         117
  C:E084H         LINE#         118
  -------         ENDPROC       _PW02SETNAME
  -------         PROC          PW02GETRSSI
  C:EE79H         LINE#         119
  C:EE79H         LINE#         120
  C:EE79H         LINE#         121
  C:EE9AH         LINE#         122
  C:EE9DH         LINE#         124
  C:EE9FH         LINE#         125
  -------         ENDPROC       PW02GETRSSI
  -------         PROC          PW02REST
  C:F42EH         LINE#         126
  C:F42EH         LINE#         127
  C:F42EH         LINE#         128
  -------         ENDPROC       PW02REST
  -------         PROC          _PW02SETMODE
  D:0007H         SYMBOL        mode
  C:F3F2H         LINE#         130
  C:F3F2H         LINE#         131
  C:F3F2H         LINE#         132
  C:F3F6H         LINE#         133
  C:F3F9H         LINE#         135
  C:F3FBH         LINE#         136
  -------         ENDPROC       _PW02SETMODE
  -------         PROC          PW02CHECKCONNECTION
  -------         DO            
  X:0FE6H         SYMBOL        y
  -------         ENDDO         
  C:D32DH         LINE#         137
  C:D32DH         LINE#         138
  C:D32DH         LINE#         139
  C:D332H         LINE#         140
  C:D334H         LINE#         141
  C:D33AH         LINE#         142
  C:D343H         LINE#         143
BL51 BANKED LINKER/LOCATER V6.22                                                      08/26/2021  06:15:46  PAGE 25


  C:D346H         LINE#         144
  C:D372H         LINE#         145
  C:D37BH         LINE#         146
  C:D37BH         LINE#         147
  C:D3A4H         LINE#         148
  C:D3A7H         LINE#         149
  C:D3D4H         LINE#         150
  C:D3D7H         LINE#         151
  C:D3D7H         LINE#         153
  C:D3D7H         LINE#         154
  C:D401H         LINE#         155
  C:D403H         LINE#         156
  C:D403H         LINE#         157
  -------         ENDPROC       PW02CHECKCONNECTION
  -------         PROC          PW02INIT
  -------         DO            
  X:0FE6H         SYMBOL        y
  -------         ENDDO         
  C:C9F2H         LINE#         158
  C:C9F2H         LINE#         159
  C:C9F2H         LINE#         160
  C:C9F7H         LINE#         161
  C:C9F9H         LINE#         164
  C:C9FBH         LINE#         165
  C:CA01H         LINE#         166
  C:CA07H         LINE#         167
  C:CA36H         LINE#         169
  C:CA39H         LINE#         170
  C:CA3EH         LINE#         171
  C:CA6BH         LINE#         172
  C:CA74H         LINE#         173
  C:CAA1H         LINE#         174
  C:CAA8H         LINE#         175
  C:CAD5H         LINE#         176
  C:CADBH         LINE#         177
  C:CB0AH         LINE#         179
  C:CB0DH         LINE#         180
  C:CB0FH         LINE#         181
  C:CB11H         LINE#         182
  -------         ENDPROC       PW02INIT
  -------         ENDMOD        PW02

  -------         MODULE        OLED
  C:0000H         SYMBOL        _ICE_DUMMY_
  C:F271H         PUBLIC        OLED_Display_On
  B:0090H.2       PUBLIC        OLED_RST
  D:0080H         PUBLIC        P0
  D:0090H         PUBLIC        P1
  D:00A0H         PUBLIC        P2
  D:00B0H         PUBLIC        P3
  D:00C0H         PUBLIC        P4
  D:00C8H         PUBLIC        P5
  D:00E8H         PUBLIC        P6
  C:F293H         PUBLIC        _OLED_Vertical_Reverse
  D:00F8H         PUBLIC        P7
  B:0090H.3       PUBLIC        OLED_DC
  D:00A8H         PUBLIC        IE
BL51 BANKED LINKER/LOCATER V6.22                                                      08/26/2021  06:15:46  PAGE 26


  D:00B8H         PUBLIC        IP
  C:DA68H         PUBLIC        OLED_Init
  B:00C0H.4       PUBLIC        OLED_RD
  D:00D8H         PUBLIC        CCON
  C:F103H         PUBLIC        _OLED_WR_Byte
  B:00C0H.3       PUBLIC        OLED_WR
  C:F331H         PUBLIC        _OLED_Set_Brightness
  D:0098H         PUBLIC        SCON
  D:0088H         PUBLIC        TCON
  C:F04EH         PUBLIC        _OLED_Set_Pos
  C:F12DH         PUBLIC        _delay_ms
  C:F3ACH         PUBLIC        OLED_Display_Off
  C:F2A4H         PUBLIC        _OLED_Inverse
  C:F282H         PUBLIC        _OLED_Horizental_Reverse
  C:F02FH         PUBLIC        OLED_Clear
  C:E83CH         PUBLIC        _OLED_DrawBMP
  D:00D0H         PUBLIC        PSW
  -------         PROC          _DELAY_MS
  D:0006H         SYMBOL        ms
  -------         DO            
  D:0005H         SYMBOL        i
  D:0004H         SYMBOL        j
  -------         ENDDO         
  C:F12DH         LINE#         13
  C:F12DH         LINE#         14
  C:F12DH         LINE#         16
  C:F136H         LINE#         17
  C:F136H         LINE#         18
  C:F138H         LINE#         19
  C:F13AH         LINE#         21
  C:F13AH         LINE#         22
  C:F13CH         LINE#         23
  C:F13EH         LINE#         24
  C:F145H         LINE#         25
  -------         ENDPROC       _DELAY_MS
  C:F0FEH         SYMBOL        L?0046
  -------         PROC          L?0045
  -------         ENDPROC       L?0045
  C:F0FEH         SYMBOL        L?0046
  -------         PROC          _OLED_WR_BYTE
  D:0007H         SYMBOL        dat
  D:0005H         SYMBOL        cmd
  C:F103H         LINE#         31
  C:F103H         LINE#         32
  C:F103H         LINE#         34
  C:F106H         LINE#         35
  C:F10AH         LINE#         37
  C:F10CH         LINE#         38
  C:F10EH         LINE#         39
  C:F110H         LINE#         40
  C:F112H         LINE#         42
  -------         ENDPROC       _OLED_WR_BYTE
  -------         PROC          _OLED_SET_POS
  D:0006H         SYMBOL        x
  D:0005H         SYMBOL        y
  C:F04EH         LINE#         71
  C:F050H         LINE#         72
BL51 BANKED LINKER/LOCATER V6.22                                                      08/26/2021  06:15:46  PAGE 27


  C:F050H         LINE#         73
  C:F059H         LINE#         74
  C:F065H         LINE#         75
  -------         ENDPROC       _OLED_SET_POS
  -------         PROC          OLED_DISPLAY_ON
  C:F271H         LINE#         78
  C:F271H         LINE#         79
  C:F271H         LINE#         80
  C:F278H         LINE#         81
  C:F27DH         LINE#         82
  -------         ENDPROC       OLED_DISPLAY_ON
  -------         PROC          OLED_DISPLAY_OFF
  C:F3ACH         LINE#         85
  C:F3ACH         LINE#         86
  C:F3ACH         LINE#         87
  C:F3B0H         LINE#         88
  C:F3B3H         LINE#         89
  -------         ENDPROC       OLED_DISPLAY_OFF
  -------         PROC          _OLED_SET_BRIGHTNESS
  D:0006H         SYMBOL        brightness
  C:F331H         LINE#         91
  C:F333H         LINE#         92
  C:F333H         LINE#         93
  C:F33AH         LINE#         94
  -------         ENDPROC       _OLED_SET_BRIGHTNESS
  -------         PROC          _OLED_HORIZENTAL_REVERSE
  D:0007H         SYMBOL        reverse
  C:F282H         LINE#         96
  C:F282H         LINE#         97
  C:F282H         LINE#         98
  C:F285H         LINE#         99
  C:F28BH         LINE#         101
  C:F292H         LINE#         102
  -------         ENDPROC       _OLED_HORIZENTAL_REVERSE
  -------         PROC          _OLED_VERTICAL_REVERSE
  D:0007H         SYMBOL        reverse
  C:F293H         LINE#         103
  C:F293H         LINE#         104
  C:F293H         LINE#         105
  C:F296H         LINE#         106
  C:F29CH         LINE#         108
  C:F2A3H         LINE#         109
  -------         ENDPROC       _OLED_VERTICAL_REVERSE
  -------         PROC          _OLED_INVERSE
  D:0007H         SYMBOL        k
  C:F2A4H         LINE#         110
  C:F2A4H         LINE#         111
  C:F2A4H         LINE#         112
  C:F2A7H         LINE#         113
  C:F2ADH         LINE#         115
  C:F2B4H         LINE#         116
  -------         ENDPROC       _OLED_INVERSE
  -------         PROC          OLED_CLEAR
  -------         DO            
  D:0006H         SYMBOL        i
  D:0004H         SYMBOL        n
  -------         ENDDO         
BL51 BANKED LINKER/LOCATER V6.22                                                      08/26/2021  06:15:46  PAGE 28


  C:F02FH         LINE#         117
  C:F02FH         LINE#         118
  C:F02FH         LINE#         120
  C:F031H         LINE#         121
  C:F031H         LINE#         122
  C:F037H         LINE#         123
  C:F037H         LINE#         124
  C:F03AH         LINE#         125
  C:F03CH         LINE#         126
  C:F048H         LINE#         127
  C:F04DH         LINE#         128
  -------         ENDPROC       OLED_CLEAR
  -------         PROC          _OLED_DRAWBMP
  D:0001H         SYMBOL        buf
  -------         DO            
  D:0037H         SYMBOL        i
  D:0038H         SYMBOL        j
  D:0039H         SYMBOL        n
  -------         ENDDO         
  C:E83CH         LINE#         129
  C:E83CH         LINE#         130
  C:E83CH         LINE#         133
  C:E83FH         LINE#         134
  C:E83FH         LINE#         135
  C:E846H         LINE#         136
  C:E849H         LINE#         137
  C:E84EH         LINE#         138
  C:E859H         LINE#         139
  C:E85CH         LINE#         140
  C:E87CH         LINE#         141
  C:E885H         LINE#         142
  -------         ENDPROC       _OLED_DRAWBMP
  -------         PROC          OLED_INIT
  C:DA68H         LINE#         144
  C:DA68H         LINE#         145
  C:DA68H         LINE#         146
  C:DA6AH         LINE#         147
  C:DA71H         LINE#         148
  C:DA73H         LINE#         149
  C:DA7AH         LINE#         150
  C:DA7CH         LINE#         151
  C:DA7EH         LINE#         152
  C:DA82H         LINE#         153
  C:DA82H         LINE#         154
  C:DA85H         LINE#         155
  C:DA8AH         LINE#         156
  C:DA8FH         LINE#         157
  C:DA94H         LINE#         158
  C:DA99H         LINE#         159
  C:DA9EH         LINE#         160
  C:DAA3H         LINE#         161
  C:DAA8H         LINE#         162
  C:DAADH         LINE#         163
  C:DAB2H         LINE#         164
  C:DAB7H         LINE#         165
  C:DABCH         LINE#         166
  C:DAC1H         LINE#         167
BL51 BANKED LINKER/LOCATER V6.22                                                      08/26/2021  06:15:46  PAGE 29


  C:DAC6H         LINE#         168
  C:DACBH         LINE#         169
  C:DAD0H         LINE#         170
  C:DAD5H         LINE#         171
  C:DADAH         LINE#         172
  C:DADFH         LINE#         173
  C:DAE4H         LINE#         174
  C:DAE9H         LINE#         175
  C:DAEEH         LINE#         176
  C:DAF3H         LINE#         177
  C:DAF8H         LINE#         178
  C:DAFDH         LINE#         184
  C:DB00H         LINE#         185
  C:DB03H         LINE#         186
  -------         ENDPROC       OLED_INIT
  -------         ENDMOD        OLED

  -------         MODULE        RDA5807M
  C:0000H         SYMBOL        _ICE_DUMMY_
  D:0080H         PUBLIC        P0
  D:0090H         PUBLIC        P1
  D:00A0H         PUBLIC        P2
  D:00B0H         PUBLIC        P3
  D:00C0H         PUBLIC        P4
  C:EE51H         PUBLIC        _RDA5807MSetVOLUME
  D:00C8H         PUBLIC        P5
  D:00E8H         PUBLIC        P6
  D:00F8H         PUBLIC        P7
  D:00BAH         PUBLIC        P_SW2
  C:E36DH         PUBLIC        RDA5807MReadRges
  D:00A8H         PUBLIC        IE
  C:E23EH         PUBLIC        RDA5807MInit
  X:12A4H         PUBLIC        BAND
  D:00B8H         PUBLIC        IP
  X:12A5H         PUBLIC        CHAN
  C:E550H         PUBLIC        RDA5807MWriteRegs
  D:00D8H         PUBLIC        CCON
  C:D916H         PUBLIC        _RDA5807MSEEK
  C:F410H         PUBLIC        RDA5807MPowerDown
  D:0098H         PUBLIC        SCON
  D:0088H         PUBLIC        TCON
  C:E9A5H         PUBLIC        RDA5807MGetCurrentFq
  X:12A7H         PUBLIC        current_frequency
  X:12ABH         PUBLIC        REG02
  X:12ADH         PUBLIC        RSSI
  X:12AEH         PUBLIC        REG03
  X:12B0H         PUBLIC        REG04
  X:12B2H         PUBLIC        REG05
  X:12B4H         PUBLIC        SEEKTH
  C:F3FCH         PUBLIC        RDA5807MSetMute
  C:EC6DH         PUBLIC        RDA5807MGetCurrentRSSI
  X:12B5H         PUBLIC        REG0A
  X:12B7H         PUBLIC        REG0B
  C:F406H         PUBLIC        RDA5807MPowerUp
  X:12B9H         PUBLIC        VOLUME
  C:D70CH         PUBLIC        _RDA5807MSetFq
  X:12BAH         PUBLIC        SPACE
BL51 BANKED LINKER/LOCATER V6.22                                                      08/26/2021  06:15:46  PAGE 30


  D:00D0H         PUBLIC        PSW
  -------         PROC          L?0026
  -------         ENDPROC       L?0026
  -------         PROC          RDA5807MWRITEREGS
  -------         DO            
  X:0FEAH         SYMBOL        reg
  -------         ENDDO         
  C:E550H         LINE#         38
  C:E550H         LINE#         39
  C:E550H         LINE#         41
  C:E55DH         LINE#         42
  C:E560H         LINE#         43
  C:E56DH         LINE#         44
  C:E570H         LINE#         45
  C:E57DH         LINE#         46
  C:E580H         LINE#         47
  C:E58DH         LINE#         48
  C:E590H         LINE#         49
  C:E593H         LINE#         50
  C:E5A0H         LINE#         51
  C:E5A3H         LINE#         52
  -------         ENDPROC       RDA5807MWRITEREGS
  -------         PROC          RDA5807MREADRGES
  -------         DO            
  X:0FEAH         SYMBOL        read_buf
  -------         ENDDO         
  C:E36DH         LINE#         61
  C:E36DH         LINE#         62
  C:E36DH         LINE#         64
  C:E370H         LINE#         65
  C:E37DH         LINE#         66
  C:E380H         LINE#         67
  C:E38DH         LINE#         68
  C:E398H         LINE#         69
  C:E3A7H         LINE#         70
  C:E3B4H         LINE#         71
  C:E3BFH         LINE#         72
  C:E3CEH         LINE#         73
  -------         ENDPROC       RDA5807MREADRGES
  -------         PROC          RDA5807MINIT
  C:E23EH         LINE#         81
  C:E23EH         LINE#         82
  C:E23EH         LINE#         84
  C:E245H         LINE#         85
  C:E248H         LINE#         86
  C:E24FH         LINE#         88
  C:E258H         LINE#         89
  C:E288H         LINE#         90
  C:E28DH         LINE#         91
  C:E29FH         LINE#         92
  C:E2A2H         LINE#         93
  C:E2A4H         LINE#         94
  -------         ENDPROC       RDA5807MINIT
  -------         PROC          _RDA5807MSETVOLUME
  D:0004H         SYMBOL        VOLUME
  C:EE51H         LINE#         100
  C:EE55H         LINE#         101
BL51 BANKED LINKER/LOCATER V6.22                                                      08/26/2021  06:15:46  PAGE 31


  C:EE55H         LINE#         102
  C:EE5EH         LINE#         103
  C:EE62H         LINE#         104
  C:EE69H         LINE#         105
  C:EE76H         LINE#         106
  -------         ENDPROC       _RDA5807MSETVOLUME
  -------         PROC          _RDA5807MSEEK
  D:0005H         SYMBOL        direction
  -------         DO            
  X:12A3H         SYMBOL        step
  -------         ENDDO         
  C:D916H         LINE#         115
  C:D918H         LINE#         116
  C:D918H         LINE#         118
  C:D91EH         LINE#         119
  C:D91EH         LINE#         120
  C:D925H         LINE#         121
  C:D92CH         LINE#         122
  C:D935H         LINE#         124
  C:D939H         LINE#         125
  C:D943H         LINE#         126
  C:D946H         LINE#         128
  C:D94CH         LINE#         129
  C:D94EH         LINE#         130
  C:D956H         LINE#         131
  C:D956H         LINE#         132
  C:D959H         LINE#         133
  C:D960H         LINE#         134
  C:D960H         LINE#         135
  C:D967H         LINE#         136
  C:D979H         LINE#         137
  C:D99BH         LINE#         138
  C:D9A7H         LINE#         139
  C:D9ACH         LINE#         140
  C:D9BBH         LINE#         141
  C:D9BBH         LINE#         144
  C:D9BBH         LINE#         145
  C:D9C0H         LINE#         146
  -------         ENDPROC       _RDA5807MSEEK
  -------         PROC          _RDA5807MSETFQ
  X:0FE6H         SYMBOL        fq
  C:D70CH         LINE#         152
  C:D712H         LINE#         153
  C:D712H         LINE#         154
  C:D719H         LINE#         155
  C:D720H         LINE#         156
  C:D74EH         LINE#         157
  C:D761H         LINE#         158
  C:D77AH         LINE#         159
  C:D77DH         LINE#         160
  C:D77FH         LINE#         161
  C:D787H         LINE#         162
  C:D787H         LINE#         163
  C:D78EH         LINE#         164
  C:D791H         LINE#         165
  C:D793H         LINE#         166
  C:D79AH         LINE#         167
BL51 BANKED LINKER/LOCATER V6.22                                                      08/26/2021  06:15:46  PAGE 32


  C:D7AEH         LINE#         168
  C:D7BAH         LINE#         169
  -------         ENDPROC       _RDA5807MSETFQ
  -------         PROC          RDA5807MGETCURRENTFQ
  C:E9A5H         LINE#         175
  C:E9A5H         LINE#         176
  C:E9A5H         LINE#         177
  C:E9A8H         LINE#         178
  C:E9BAH         LINE#         179
  C:E9DCH         LINE#         180
  C:E9EAH         LINE#         181
  -------         ENDPROC       RDA5807MGETCURRENTFQ
  -------         PROC          RDA5807MGETCURRENTRSSI
  C:EC6DH         LINE#         187
  C:EC6DH         LINE#         188
  C:EC6DH         LINE#         189
  C:EC70H         LINE#         190
  C:EC7CH         LINE#         191
  C:ECA5H         LINE#         192
  C:ECA5H         LINE#         193
  -------         ENDPROC       RDA5807MGETCURRENTRSSI
  -------         PROC          RDA5807MSETMUTE
  C:F3FCH         LINE#         199
  C:F3FCH         LINE#         200
  C:F3FCH         LINE#         201
  C:F403H         LINE#         202
  -------         ENDPROC       RDA5807MSETMUTE
  -------         PROC          RDA5807MPOWERUP
  C:F406H         LINE#         209
  C:F406H         LINE#         210
  C:F406H         LINE#         211
  C:F40DH         LINE#         212
  -------         ENDPROC       RDA5807MPOWERUP
  -------         PROC          RDA5807MPOWERDOWN
  C:F410H         LINE#         219
  C:F410H         LINE#         220
  C:F410H         LINE#         221
  C:F417H         LINE#         222
  -------         ENDPROC       RDA5807MPOWERDOWN
  -------         ENDMOD        RDA5807M

  -------         MODULE        PCF8563
  C:0000H         SYMBOL        _ICE_DUMMY_
  C:ECDFH         PUBLIC        _PCF8563EnableTimer
  C:F41AH         PUBLIC        PCF8563ReadIntSrc
  C:F437H         PUBLIC        PCF8563ClearAlarmFlag
  C:F2B5H         PUBLIC        _PCF8563EnableClockOuput
  C:F440H         PUBLIC        PCF8563ClearTimerFlag
  C:EBFDH         PUBLIC        _PCF8563SetRegisterBits
  C:E2A5H         PUBLIC        _PCF8563WriteDate
  C:CF68H         PUBLIC        _PCF8563ReadTime
  C:F464H         PUBLIC        _PCF8563ReadByte
  C:F226H         PUBLIC        PCF8563Init
  C:D4D9H         PUBLIC        _PCF8563SetAlarm
  C:E7A2H         PUBLIC        _PCF8563WriteTime
  C:F1B0H         PUBLIC        _PCF8563WriteByte
  C:EF3BH         PUBLIC        PCF8563DisableAlarm
BL51 BANKED LINKER/LOCATER V6.22                                                      08/26/2021  06:15:46  PAGE 33


  C:F24DH         PUBLIC        PCF8563DisableTimer
  -------         PROC          L?0030
  -------         ENDPROC       L?0030
  -------         PROC          _PCF8563WRITEBYTE
  D:0007H         SYMBOL        addr
  D:0006H         SYMBOL        dat
  C:F1B0H         LINE#         10
  C:F1B2H         LINE#         11
  C:F1B2H         LINE#         12
  -------         ENDPROC       _PCF8563WRITEBYTE
  -------         PROC          _PCF8563READBYTE
  D:0007H         SYMBOL        addr
  -------         DO            
  D:0007H         SYMBOL        temp
  -------         ENDDO         
  C:F464H         LINE#         19
  C:F464H         LINE#         20
  C:F464H         LINE#         22
  C:F46BH         LINE#         23
  C:F46BH         LINE#         24
  -------         ENDPROC       _PCF8563READBYTE
  -------         PROC          L?0031
  -------         ENDPROC       L?0031
  -------         PROC          _PCF8563SETREGISTERBITS
  X:0FEEH         SYMBOL        addr
  X:0FEFH         SYMBOL        bit_mask
  X:0FF0H         SYMBOL        SC
  -------         DO            
  D:0006H         SYMBOL        temp
  -------         ENDDO         
  C:EBFDH         LINE#         32
  C:EC0AH         LINE#         33
  C:EC0AH         LINE#         35
  C:EC0FH         LINE#         36
  C:EC17H         LINE#         37
  C:EC1FH         LINE#         38
  C:EC22H         LINE#         39
  C:EC29H         LINE#         40
  -------         ENDPROC       _PCF8563SETREGISTERBITS
  -------         PROC          _PCF8563READTIME
  X:0FE6H         SYMBOL        t
  -------         DO            
  X:0FE9H         SYMBOL        buf
  -------         ENDDO         
  C:CF68H         LINE#         47
  C:CF73H         LINE#         48
  C:CF73H         LINE#         50
  C:CF8AH         LINE#         51
  C:CF91H         LINE#         52
  C:CFAFH         LINE#         53
  C:CFB6H         LINE#         54
  C:CFD7H         LINE#         55
  C:CFDEH         LINE#         56
  C:CFF2H         LINE#         57
  C:CFF9H         LINE#         58
  C:D00DH         LINE#         59
  C:D014H         LINE#         60
BL51 BANKED LINKER/LOCATER V6.22                                                      08/26/2021  06:15:46  PAGE 34


  C:D016H         LINE#         61
  C:D019H         LINE#         62
  C:D030H         LINE#         63
  C:D038H         LINE#         64
  C:D040H         LINE#         65
  C:D047H         LINE#         66
  C:D05BH         LINE#         67
  -------         ENDPROC       _PCF8563READTIME
  -------         PROC          _PCF8563WRITETIME
  X:0FE6H         SYMBOL        hour
  X:0FE7H         SYMBOL        min
  D:0003H         SYMBOL        sec
  C:E7A2H         LINE#         75
  C:E7AAH         LINE#         76
  C:E7AAH         LINE#         77
  C:E7C1H         LINE#         78
  C:E7D4H         LINE#         79
  -------         ENDPROC       _PCF8563WRITETIME
  -------         PROC          _PCF8563WRITEDATE
  X:0FE6H         SYMBOL        year
  X:0FE8H         SYMBOL        month
  X:0FE9H         SYMBOL        day
  X:0FEAH         SYMBOL        weekday
  C:E2A5H         LINE#         88
  C:E2B3H         LINE#         89
  C:E2B3H         LINE#         90
  C:E2C1H         LINE#         91
  C:E2C9H         LINE#         92
  C:E2DCH         LINE#         93
  C:E2F7H         LINE#         94
  C:E2FEH         LINE#         95
  C:E300H         LINE#         96
  -------         ENDPROC       _PCF8563WRITEDATE
  -------         PROC          _PCF8563SETALARM
  D:0007H         SYMBOL        hour
  D:0006H         SYMBOL        min
  D:0003H         SYMBOL        weekday
  X:0FE9H         SYMBOL        day
  X:0FEAH         SYMBOL        mode
  -------         DO            
  D:0005H         SYMBOL        temp1
  X:0FEBH         SYMBOL        temp2
  X:0FECH         SYMBOL        temp3
  X:0FEDH         SYMBOL        temp4
  -------         ENDDO         
  C:D4D9H         LINE#         110
  C:D4DBH         LINE#         111
  C:D4DBH         LINE#         112
  C:D4DCH         LINE#         113
  C:D4E0H         LINE#         114
  C:D4E2H         LINE#         115
  C:D4E4H         LINE#         116
  C:D4F8H         LINE#         117
  C:D50FH         LINE#         118
  C:D514H         LINE#         119
  C:D52FH         LINE#         120
  C:D53CH         LINE#         121
BL51 BANKED LINKER/LOCATER V6.22                                                      08/26/2021  06:15:46  PAGE 35


  C:D53CH         LINE#         122
  C:D540H         LINE#         123
  C:D543H         LINE#         124
  C:D545H         LINE#         125
  C:D54DH         LINE#         126
  C:D54DH         LINE#         127
  C:D551H         LINE#         128
  C:D556H         LINE#         129
  C:D557H         LINE#         130
  C:D559H         LINE#         131
  C:D55DH         LINE#         132
  C:D55DH         LINE#         133
  C:D561H         LINE#         134
  C:D568H         LINE#         135
  C:D56FH         LINE#         136
  C:D56FH         LINE#         137
  C:D574H         LINE#         138
  C:D57EH         LINE#         139
  C:D588H         LINE#         140
  C:D592H         LINE#         141
  -------         ENDPROC       _PCF8563SETALARM
  -------         PROC          PCF8563CLEARALARMFLAG
  C:F437H         LINE#         149
  C:F437H         LINE#         150
  C:F437H         LINE#         151
  -------         ENDPROC       PCF8563CLEARALARMFLAG
  -------         PROC          PCF8563DISABLEALARM
  C:EF3BH         LINE#         158
  C:EF3BH         LINE#         159
  C:EF3BH         LINE#         160
  C:EF40H         LINE#         161
  C:EF45H         LINE#         162
  C:EF4EH         LINE#         163
  C:EF57H         LINE#         164
  -------         ENDPROC       PCF8563DISABLEALARM
  -------         PROC          _PCF8563ENABLETIMER
  X:0FE6H         SYMBOL        clock_fq
  X:0FE7H         SYMBOL        value
  C:ECDFH         LINE#         176
  C:ECE7H         LINE#         177
  C:ECE7H         LINE#         178
  C:ECF0H         LINE#         179
  C:ECFAH         LINE#         180
  C:ED04H         LINE#         181
  C:ED0DH         LINE#         182
  -------         ENDPROC       _PCF8563ENABLETIMER
  -------         PROC          PCF8563CLEARTIMERFLAG
  C:F440H         LINE#         190
  C:F440H         LINE#         191
  C:F440H         LINE#         192
  -------         ENDPROC       PCF8563CLEARTIMERFLAG
  -------         PROC          PCF8563DISABLETIMER
  C:F24DH         LINE#         199
  C:F24DH         LINE#         200
  C:F24DH         LINE#         201
  C:F256H         LINE#         202
  -------         ENDPROC       PCF8563DISABLETIMER
BL51 BANKED LINKER/LOCATER V6.22                                                      08/26/2021  06:15:46  PAGE 36


  -------         PROC          PCF8563READINTSRC
  -------         DO            
  D:0007H         SYMBOL        temp
  -------         ENDDO         
  C:F41AH         LINE#         209
  C:F41AH         LINE#         210
  C:F41AH         LINE#         212
  C:F41FH         LINE#         213
  C:F423H         LINE#         214
  C:F423H         LINE#         215
  -------         ENDPROC       PCF8563READINTSRC
  -------         PROC          _PCF8563ENABLECLOCKOUPUT
  D:0007H         SYMBOL        clock_fq
  D:0005H         SYMBOL        en
  C:F2B5H         LINE#         227
  C:F2B5H         LINE#         228
  C:F2B5H         LINE#         229
  -------         ENDPROC       _PCF8563ENABLECLOCKOUPUT
  -------         PROC          PCF8563INIT
  C:F226H         LINE#         231
  C:F226H         LINE#         232
  C:F226H         LINE#         233
  C:F229H         LINE#         234
  C:F22CH         LINE#         235
  C:F233H         LINE#         237
  -------         ENDPROC       PCF8563INIT
  -------         ENDMOD        PCF8563

  -------         MODULE        BME280
  C:0000H         SYMBOL        _ICE_DUMMY_
  D:0080H         PUBLIC        P0
  D:0090H         PUBLIC        P1
  D:00A0H         PUBLIC        P2
  D:00B0H         PUBLIC        P3
  D:00C0H         PUBLIC        P4
  D:00C8H         PUBLIC        P5
  C:F46CH         PUBLIC        _BME280ReadByte
  D:00E8H         PUBLIC        P6
  C:E5FEH         PUBLIC        BME280Init
  D:00F8H         PUBLIC        P7
  X:126DH         PUBLIC        filter
  C:B08FH         PUBLIC        compensate_humidity
  C:E8D0H         PUBLIC        _BME280GetSensorData
  D:00A8H         PUBLIC        IE
  X:126EH         PUBLIC        dig_H1
  X:126FH         PUBLIC        dig_H2
  X:1271H         PUBLIC        dig_H3
  C:BF81H         PUBLIC        BME280ReadCompensationParameter
  X:1272H         PUBLIC        osrs_h
  X:1273H         PUBLIC        dig_H4
  X:1275H         PUBLIC        dig_H5
  X:1277H         PUBLIC        dig_H6
  C:F34DH         PUBLIC        BME280SoftReset
  C:A137H         PUBLIC        compensate_pressure
  C:EEBAH         PUBLIC        _BME280WriteByte
  X:1278H         PUBLIC        dig_P1
  C:D255H         PUBLIC        BME280ReadSensorRawData
BL51 BANKED LINKER/LOCATER V6.22                                                      08/26/2021  06:15:46  PAGE 37


  X:127AH         PUBLIC        dig_P2
  X:127CH         PUBLIC        dig_P3
  D:00B8H         PUBLIC        IP
  X:127EH         PUBLIC        osrs_p
  X:127FH         PUBLIC        dig_P4
  X:1281H         PUBLIC        dig_P5
  X:1283H         PUBLIC        dig_T1
  X:1285H         PUBLIC        dig_P6
  X:1287H         PUBLIC        dig_T2
  X:1289H         PUBLIC        dig_P7
  X:128BH         PUBLIC        dig_T3
  X:128DH         PUBLIC        osrs_t
  X:128EH         PUBLIC        dig_P8
  X:1290H         PUBLIC        dig_P9
  D:00D8H         PUBLIC        CCON
  C:F06CH         PUBLIC        _BME280SetMode
  X:1292H         PUBLIC        t_sb
  X:1293H         PUBLIC        spi3w_en
  X:1294H         PUBLIC        uncomp_temperature
  D:0098H         PUBLIC        SCON
  D:0088H         PUBLIC        TCON
  C:F1BDH         PUBLIC        _BME280ContinuousMeasurement
  C:F4A3H         SYMBOL        _?ix1000
  C:B911H         PUBLIC        compensate_temperature
  C:EF60H         PUBLIC        _BME280SingleMeasurement
  X:1298H         PUBLIC        uncomp_humidity
  C:F33FH         PUBLIC        BME280CheckConnection
  X:129AH         PUBLIC        uncomp_pressure
  X:129EH         PUBLIC        BME280_mode
  X:129FH         PUBLIC        t_fine
  D:00D0H         PUBLIC        PSW
  C:D06DH         PUBLIC        BME280_cal_meas_delay
  -------         PROC          L?0043
  -------         ENDPROC       L?0043
  -------         PROC          _BME280WRITEBYTE
  D:0007H         SYMBOL        addr
  D:0006H         SYMBOL        dat
  C:EEBAH         LINE#         49
  C:EEBCH         LINE#         50
  C:EEBCH         LINE#         51
  -------         ENDPROC       _BME280WRITEBYTE
  -------         PROC          _BME280READBYTE
  D:0007H         SYMBOL        addr
  -------         DO            
  D:0007H         SYMBOL        temp
  -------         ENDDO         
  C:F46CH         LINE#         58
  C:F46CH         LINE#         59
  C:F46CH         LINE#         61
  C:F473H         LINE#         62
  C:F473H         LINE#         63
  -------         ENDPROC       _BME280READBYTE
  -------         PROC          BME280CHECKCONNECTION
  C:F33FH         LINE#         69
  C:F33FH         LINE#         70
  C:F33FH         LINE#         71
  C:F347H         LINE#         72
BL51 BANKED LINKER/LOCATER V6.22                                                      08/26/2021  06:15:46  PAGE 38


  C:F34AH         LINE#         74
  C:F34CH         LINE#         75
  -------         ENDPROC       BME280CHECKCONNECTION
  -------         PROC          BME280_CAL_MEAS_DELAY
  -------         DO            
  D:0007H         SYMBOL        max_delay
  X:12CEH         SYMBOL        temp_osr
  X:12CFH         SYMBOL        pres_osr
  X:12D0H         SYMBOL        hum_osr
  X:12D1H         SYMBOL        osr_sett_to_act_osr
  -------         ENDDO         
  C:D06DH         LINE#         81
  C:D06DH         LINE#         82
  C:D06DH         LINE#         89
  C:D080H         LINE#         92
  C:D08AH         LINE#         93
  C:D08AH         LINE#         94
  C:D099H         LINE#         95
  C:D09BH         LINE#         97
  C:D09BH         LINE#         98
  C:D0A1H         LINE#         99
  C:D0A1H         LINE#         101
  C:D0ABH         LINE#         102
  C:D0ABH         LINE#         103
  C:D0BAH         LINE#         104
  C:D0BCH         LINE#         106
  C:D0BCH         LINE#         107
  C:D0C2H         LINE#         108
  C:D0C2H         LINE#         110
  C:D0CCH         LINE#         111
  C:D0CCH         LINE#         112
  C:D0DBH         LINE#         113
  C:D0DDH         LINE#         115
  C:D0DDH         LINE#         116
  C:D0E3H         LINE#         117
  C:D0E3H         LINE#         119
  C:D168H         LINE#         121
  C:D16AH         LINE#         122
  -------         ENDPROC       BME280_CAL_MEAS_DELAY
  -------         PROC          BME280READCOMPENSATIONPARAMETER
  -------         DO            
  X:0FEBH         SYMBOL        buf1
  X:1005H         SYMBOL        buf2
  -------         ENDDO         
  C:BF81H         LINE#         129
  C:BF81H         LINE#         130
  C:BF81H         LINE#         132
  C:BF98H         LINE#         133
  C:BFAFH         LINE#         135
  C:BFC3H         LINE#         136
  C:BFD7H         LINE#         137
  C:BFEBH         LINE#         138
  C:BFFFH         LINE#         139
  C:C013H         LINE#         140
  C:C027H         LINE#         141
  C:C03BH         LINE#         142
  C:C04FH         LINE#         143
BL51 BANKED LINKER/LOCATER V6.22                                                      08/26/2021  06:15:46  PAGE 39


  C:C063H         LINE#         144
  C:C077H         LINE#         145
  C:C08BH         LINE#         146
  C:C09FH         LINE#         147
  C:C0A7H         LINE#         148
  C:C0BBH         LINE#         149
  C:C0C3H         LINE#         150
  C:C0DBH         LINE#         151
  C:C0F8H         LINE#         152
  C:C100H         LINE#         153
  -------         ENDPROC       BME280READCOMPENSATIONPARAMETER
  -------         PROC          BME280READSENSORRAWDATA
  -------         DO            
  X:0FE9H         SYMBOL        buf
  -------         ENDDO         
  C:D255H         LINE#         159
  C:D255H         LINE#         160
  C:D255H         LINE#         162
  C:D26CH         LINE#         163
  C:D2C3H         LINE#         164
  C:D31AH         LINE#         165
  C:D32CH         LINE#         166
  -------         ENDPROC       BME280READSENSORRAWDATA
  -------         PROC          COMPENSATE_TEMPERATURE
  -------         DO            
  X:0FE9H         SYMBOL        var1
  X:0FEDH         SYMBOL        var2
  X:0FF1H         SYMBOL        temperature
  X:0FF5H         SYMBOL        temperature_min
  X:0FF9H         SYMBOL        temperature_max
  -------         ENDDO         
  C:B911H         LINE#         171
  C:B911H         LINE#         172
  C:B911H         LINE#         176
  C:B91BH         LINE#         177
  C:B925H         LINE#         179
  C:B978H         LINE#         180
  C:B99BH         LINE#         181
  C:B9ECH         LINE#         182
  C:BA29H         LINE#         183
  C:BA51H         LINE#         184
  C:BA80H         LINE#         185
  C:BAA1H         LINE#         186
  C:BAA1H         LINE#         187
  C:BAA4H         LINE#         188
  C:BAA6H         LINE#         189
  C:BAC9H         LINE#         190
  C:BAC9H         LINE#         191
  C:BADDH         LINE#         192
  C:BADDH         LINE#         193
  C:BAEBH         LINE#         194
  -------         ENDPROC       COMPENSATE_TEMPERATURE
  -------         PROC          COMPENSATE_PRESSURE
  -------         DO            
  X:0FE9H         SYMBOL        var1
  X:0FEDH         SYMBOL        var2
  X:0FF1H         SYMBOL        var3
BL51 BANKED LINKER/LOCATER V6.22                                                      08/26/2021  06:15:46  PAGE 40


  X:0FF5H         SYMBOL        pressure
  X:0FF9H         SYMBOL        pressure_min
  X:0FFDH         SYMBOL        pressure_max
  -------         ENDDO         
  C:A137H         LINE#         199
  C:A137H         LINE#         200
  C:A137H         LINE#         205
  C:A141H         LINE#         206
  C:A14BH         LINE#         208
  C:A176H         LINE#         209
  C:A1BCH         LINE#         210
  C:A209H         LINE#         211
  C:A250H         LINE#         212
  C:A28DH         LINE#         213
  C:A2CAH         LINE#         214
  C:A310H         LINE#         217
  C:A32DH         LINE#         218
  C:A32DH         LINE#         219
  C:A357H         LINE#         220
  C:A3AAH         LINE#         221
  C:A3E7H         LINE#         222
  C:A413H         LINE#         223
  C:A482H         LINE#         224
  C:A4A3H         LINE#         225
  C:A4A3H         LINE#         226
  C:A4A3H         LINE#         227
  C:A4A5H         LINE#         228
  C:A4C8H         LINE#         229
  C:A4C8H         LINE#         230
  C:A4CBH         LINE#         231
  C:A4CBH         LINE#         232
  C:A4CDH         LINE#         234
  C:A4CDH         LINE#         235
  C:A4E1H         LINE#         236
  C:A4E1H         LINE#         238
  C:A4EFH         LINE#         239
  -------         ENDPROC       COMPENSATE_PRESSURE
  -------         PROC          COMPENSATE_HUMIDITY
  -------         DO            
  X:0FE9H         SYMBOL        humidity
  X:0FEDH         SYMBOL        humidity_min
  X:0FF1H         SYMBOL        humidity_max
  X:0FF5H         SYMBOL        var1
  X:0FF9H         SYMBOL        var2
  X:0FFDH         SYMBOL        var3
  X:1001H         SYMBOL        var4
  X:1005H         SYMBOL        var5
  X:1009H         SYMBOL        var6
  -------         ENDDO         
  C:B08FH         LINE#         244
  C:B08FH         LINE#         245
  C:B08FH         LINE#         247
  C:B099H         LINE#         248
  C:B0A3H         LINE#         256
  C:B0C5H         LINE#         257
  C:B11BH         LINE#         258
  C:B13EH         LINE#         259
BL51 BANKED LINKER/LOCATER V6.22                                                      08/26/2021  06:15:46  PAGE 41


  C:B15AH         LINE#         260
  C:B18EH         LINE#         261
  C:B1D2H         LINE#         262
  C:B229H         LINE#         263
  C:B275H         LINE#         265
  C:B298H         LINE#         266
  C:B298H         LINE#         267
  C:B29BH         LINE#         268
  C:B29DH         LINE#         269
  C:B2BEH         LINE#         270
  C:B2BEH         LINE#         271
  C:B2D2H         LINE#         272
  C:B2D2H         LINE#         273
  C:B2E0H         LINE#         274
  -------         ENDPROC       COMPENSATE_HUMIDITY
  -------         PROC          _BME280GETSENSORDATA
  X:0FE6H         SYMBOL        p
  C:E8D0H         LINE#         280
  C:E8DBH         LINE#         281
  C:E8DBH         LINE#         282
  C:E8DEH         LINE#         283
  C:E8EFH         LINE#         284
  C:E903H         LINE#         285
  -------         ENDPROC       _BME280GETSENSORDATA
  -------         PROC          BME280SOFTRESET
  C:F34DH         LINE#         292
  C:F34DH         LINE#         293
  C:F34DH         LINE#         294
  C:F354H         LINE#         295
  -------         ENDPROC       BME280SOFTRESET
  -------         PROC          BME280INIT
  -------         DO            
  X:0FEAH         SYMBOL        time_out
  -------         ENDDO         
  C:E5FEH         LINE#         303
  C:E5FEH         LINE#         304
  C:E5FEH         LINE#         305
  C:E604H         LINE#         310
  C:E60BH         LINE#         311
  C:E611H         LINE#         312
  C:E611H         LINE#         313
  C:E617H         LINE#         314
  C:E61FH         LINE#         315
  C:E621H         LINE#         316
  C:E621H         LINE#         317
  C:E624H         LINE#         318
  C:E627H         LINE#         319
  C:E62AH         LINE#         320
  C:E634H         LINE#         321
  C:E653H         LINE#         322
  C:E655H         LINE#         323
  -------         ENDPROC       BME280INIT
  -------         PROC          _BME280SETMODE
  D:0007H         SYMBOL        mode
  C:F06CH         LINE#         332
  C:F06CH         LINE#         333
  C:F06CH         LINE#         334
BL51 BANKED LINKER/LOCATER V6.22                                                      08/26/2021  06:15:46  PAGE 42


  C:F071H         LINE#         335
  -------         ENDPROC       _BME280SETMODE
  -------         PROC          _BME280SINGLEMEASUREMENT
  X:12DBH         SYMBOL        p
  C:EF60H         LINE#         342
  C:EF6BH         LINE#         343
  C:EF6BH         LINE#         344
  C:EF70H         LINE#         345
  C:EF76H         LINE#         346
  -------         ENDPROC       _BME280SINGLEMEASUREMENT
  -------         PROC          _BME280CONTINUOUSMEASUREMENT
  D:0007H         SYMBOL        t
  C:F1BDH         LINE#         358
  C:F1BDH         LINE#         359
  C:F1BDH         LINE#         360
  C:F1C3H         LINE#         361
  C:F1C5H         LINE#         362
  C:F1CAH         LINE#         363
  C:F1CDH         LINE#         364
  -------         ENDPROC       _BME280CONTINUOUSMEASUREMENT
  -------         ENDMOD        BME280

  -------         MODULE        ELLIPSOID_FITTING
  C:0000H         SYMBOL        _ICE_DUMMY_
  C:E9EBH         PUBLIC        ResetMatrix
  C:DC40H         PUBLIC        _MoveBiggestElement_to_Top
  C:E518H         PUBLIC        _Abs
  X:1049H         PUBLIC        final_solve
  C:DE97H         PUBLIC        CalcData_Input_average
  C:D9C1H         PUBLIC        _Row2_add_kRow1
  C:A4F0H         PUBLIC        _Ellipsoid_fitting_Process
  X:1061H         PUBLIC        N
  C:CE5FH         PUBLIC        Matrix_GaussElimination
  C:D16BH         PUBLIC        _Row2_swop_Row1
  C:BAECH         PUBLIC        _Matrix_Solve
  C:C101H         PUBLIC        _CalcData_Input
  C:E167H         PUBLIC        Matrix_RowSimplify
  X:1063H         PUBLIC        m_matrix
  C:E3CFH         PUBLIC        _k_muiltply_Row
  X:110BH         PUBLIC        m_result
  -------         PROC          L?0068
  -------         ENDPROC       L?0068
  -------         PROC          _ABS
  X:1025H         SYMBOL        a
  C:E518H         LINE#         15
  C:E51EH         LINE#         16
  C:E51EH         LINE#         17
  C:E549H         LINE#         18
  -------         ENDPROC       _ABS
  -------         PROC          RESETMATRIX
  -------         DO            
  X:0FE6H         SYMBOL        row
  X:0FE7H         SYMBOL        column
  -------         ENDDO         
  C:E9EBH         LINE#         21
  C:E9EBH         LINE#         22
  C:E9EBH         LINE#         24
BL51 BANKED LINKER/LOCATER V6.22                                                      08/26/2021  06:15:46  PAGE 43


  C:E9F0H         LINE#         25
  C:E9F0H         LINE#         26
  C:E9FFH         LINE#         27
  C:EA26H         LINE#         28
  C:EA30H         LINE#         29
  -------         ENDPROC       RESETMATRIX
  -------         PROC          _CALCDATA_INPUT
  X:0FE6H         SYMBOL        x
  X:0FEAH         SYMBOL        y
  X:0FEEH         SYMBOL        z
  -------         DO            
  X:0FF2H         SYMBOL        V
  X:100EH         SYMBOL        row
  X:100FH         SYMBOL        column
  -------         ENDDO         
  C:C101H         LINE#         32
  C:C107H         LINE#         33
  C:C107H         LINE#         36
  C:C115H         LINE#         37
  C:C13AH         LINE#         38
  C:C158H         LINE#         39
  C:C16CH         LINE#         40
  C:C180H         LINE#         41
  C:C194H         LINE#         42
  C:C19EH         LINE#         43
  C:C1C6H         LINE#         45
  C:C1CBH         LINE#         46
  C:C1CBH         LINE#         47
  C:C1D0H         LINE#         48
  C:C1D0H         LINE#         49
  C:C257H         LINE#         50
  C:C265H         LINE#         51
  C:C273H         LINE#         53
  -------         ENDPROC       _CALCDATA_INPUT
  -------         PROC          CALCDATA_INPUT_AVERAGE
  -------         DO            
  X:1019H         SYMBOL        row
  X:101AH         SYMBOL        column
  -------         ENDDO         
  C:DE97H         LINE#         56
  C:DE97H         LINE#         57
  C:DE97H         LINE#         59
  C:DE9CH         LINE#         60
  C:DEA1H         LINE#         61
  C:DF16H         LINE#         63
  -------         ENDPROC       CALCDATA_INPUT_AVERAGE
  -------         PROC          _ROW2_SWOP_ROW1
  X:1025H         SYMBOL        row1
  X:1027H         SYMBOL        row2
  -------         DO            
  X:1029H         SYMBOL        tmp
  X:102DH         SYMBOL        column
  -------         ENDDO         
  C:D16BH         LINE#         83
  C:D179H         LINE#         84
  C:D179H         LINE#         85
  C:D181H         LINE#         87
BL51 BANKED LINKER/LOCATER V6.22                                                      08/26/2021  06:15:46  PAGE 44


  C:D186H         LINE#         88
  C:D186H         LINE#         89
  C:D1BBH         LINE#         90
  C:D211H         LINE#         91
  C:D246H         LINE#         92
  C:D254H         LINE#         93
  -------         ENDPROC       _ROW2_SWOP_ROW1
  -------         PROC          _K_MUILTPLY_ROW
  X:101EH         SYMBOL        k
  X:1022H         SYMBOL        row
  -------         DO            
  X:1024H         SYMBOL        column
  -------         ENDDO         
  C:E3CFH         LINE#         96
  C:E3D5H         LINE#         97
  C:E3D5H         LINE#         99
  C:E3DAH         LINE#         100
  C:E42FH         LINE#         101
  -------         ENDPROC       _K_MUILTPLY_ROW
  -------         PROC          _ROW2_ADD_KROW1
  X:101FH         SYMBOL        k
  X:1023H         SYMBOL        row1
  X:1025H         SYMBOL        row2
  -------         DO            
  X:1027H         SYMBOL        column
  -------         ENDDO         
  C:D9C1H         LINE#         104
  C:D9C7H         LINE#         105
  C:D9C7H         LINE#         107
  C:D9CCH         LINE#         108
  C:DA67H         LINE#         109
  -------         ENDPROC       _ROW2_ADD_KROW1
  -------         PROC          _MOVEBIGGESTELEMENT_TO_TOP
  X:101FH         SYMBOL        k
  -------         DO            
  X:1021H         SYMBOL        row
  X:1023H         SYMBOL        column
  -------         ENDDO         
  C:DC40H         LINE#         113
  C:DC48H         LINE#         114
  C:DC48H         LINE#         115
  C:DC51H         LINE#         116
  C:DC70H         LINE#         117
  C:DC70H         LINE#         118
  C:DCB6H         LINE#         119
  C:DCB6H         LINE#         120
  C:DCC7H         LINE#         121
  C:DCC7H         LINE#         122
  C:DCD8H         LINE#         123
  -------         ENDPROC       _MOVEBIGGESTELEMENT_TO_TOP
  -------         PROC          MATRIX_GAUSSELIMINATION
  -------         DO            
  X:1019H         SYMBOL        k
  X:101DH         SYMBOL        cnt
  X:101EH         SYMBOL        row
  -------         ENDDO         
  C:CE5FH         LINE#         126
BL51 BANKED LINKER/LOCATER V6.22                                                      08/26/2021  06:15:46  PAGE 45


  C:CE5FH         LINE#         127
  C:CE5FH         LINE#         128
  C:CE69H         LINE#         130
  C:CE7BH         LINE#         131
  C:CE7BH         LINE#         133
  C:CE80H         LINE#         134
  C:CEAEH         LINE#         135
  C:CEB1H         LINE#         137
  C:CEC5H         LINE#         138
  C:CEC5H         LINE#         139
  C:CF2AH         LINE#         140
  C:CF53H         LINE#         141
  C:CF5CH         LINE#         143
  C:CF65H         LINE#         144
  C:CF67H         LINE#         145
  -------         ENDPROC       MATRIX_GAUSSELIMINATION
  -------         PROC          MATRIX_ROWSIMPLIFY
  -------         DO            
  X:1019H         SYMBOL        k
  X:101DH         SYMBOL        row
  -------         ENDDO         
  C:E167H         LINE#         148
  C:E167H         LINE#         149
  C:E167H         LINE#         150
  C:E171H         LINE#         152
  C:E176H         LINE#         153
  C:E176H         LINE#         154
  C:E1AAH         LINE#         155
  C:E1C6H         LINE#         156
  C:E1D2H         LINE#         158
  -------         ENDPROC       MATRIX_ROWSIMPLIFY
  -------         PROC          _MATRIX_SOLVE
  X:1019H         SYMBOL        solve
  -------         DO            
  X:101CH         SYMBOL        row
  X:1020H         SYMBOL        column
  -------         ENDDO         
  C:BAECH         LINE#         161
  C:BAF7H         LINE#         162
  C:BAF7H         LINE#         165
  C:BB0FH         LINE#         166
  C:BB0FH         LINE#         167
  C:BB6CH         LINE#         168
  C:BB9BH         LINE#         169
  C:BC50H         LINE#         170
  C:BC77H         LINE#         174
  -------         ENDPROC       _MATRIX_SOLVE
  -------         PROC          _ELLIPSOID_FITTING_PROCESS
  X:0FE6H         SYMBOL        dat
  -------         DO            
  X:0FE9H         SYMBOL        a
  X:0FEDH         SYMBOL        b
  X:0FF1H         SYMBOL        c
  X:0FF5H         SYMBOL        d
  X:0FF9H         SYMBOL        e
  X:0FFDH         SYMBOL        f
  X:1001H         SYMBOL        X0
BL51 BANKED LINKER/LOCATER V6.22                                                      08/26/2021  06:15:46  PAGE 46


  X:1005H         SYMBOL        Y0
  X:1009H         SYMBOL        Z0
  X:100DH         SYMBOL        A
  X:1011H         SYMBOL        B
  X:1015H         SYMBOL        C
  -------         ENDDO         
  C:A4F0H         LINE#         177
  C:A4FBH         LINE#         178
  C:A4FBH         LINE#         179
  C:A535H         LINE#         180
  C:A571H         LINE#         195
  C:A574H         LINE#         197
  C:A57AH         LINE#         198
  C:A57AH         LINE#         199
  C:A583H         LINE#         200
  C:A586H         LINE#         201
  C:A586H         LINE#         203
  C:A586H         LINE#         204
  C:A589H         LINE#         205
  C:A592H         LINE#         206
  C:A5A6H         LINE#         207
  C:A5BAH         LINE#         208
  C:A5CEH         LINE#         209
  C:A5E2H         LINE#         210
  C:A5F6H         LINE#         211
  C:A60AH         LINE#         213
  C:A62AH         LINE#         214
  C:A66BH         LINE#         215
  C:A6ACH         LINE#         216
  C:A764H         LINE#         217
  C:A794H         LINE#         218
  C:A7C4H         LINE#         220
  C:A7E6H         LINE#         221
  C:A80BH         LINE#         222
  C:A830H         LINE#         223
  C:A844H         LINE#         224
  C:A858H         LINE#         225
  C:A86CH         LINE#         231
  C:A86EH         LINE#         232
  C:A86EH         LINE#         233
  -------         ENDPROC       _ELLIPSOID_FITTING_PROCESS
  -------         ENDMOD        ELLIPSOID_FITTING

  -------         MODULE        HMC5883L
  C:0000H         SYMBOL        _ICE_DUMMY_
  X:12BBH         PUBLIC        MA
  X:12BCH         PUBLIC        MD
  X:12BDH         PUBLIC        DO
  X:12BEH         PUBLIC        GN
  X:12BFH         PUBLIC        MS
  C:EABBH         PUBLIC        _HMC5883L_Set_Calibration_Value
  C:F474H         PUBLIC        _HMC5883L_Read_Byte
  C:C531H         PUBLIC        _Read_HMC5883L
  C:0046H         PUBLIC        _HMC5883L_Write_Byte
  C:F3DCH         PUBLIC        _HMC5883L_Set_Mode
  C:E656H         PUBLIC        HMC5883L_Init
  C:F2C5H         PUBLIC        CheckHMC5883LConnection
BL51 BANKED LINKER/LOCATER V6.22                                                      08/26/2021  06:15:46  PAGE 47


  X:12C0H         PUBLIC        mag_x_offset
  X:12C2H         PUBLIC        mag_y_scale
  X:12C6H         PUBLIC        mag_y_offset
  X:12C8H         PUBLIC        mag_z_scale
  X:12CCH         PUBLIC        mag_z_offset
  C:B2E1H         PUBLIC        _HMC5883L_Get_AngleXY
  -------         PROC          _HMC5883L_WRITE_BYTE
  D:0007H         SYMBOL        addr
  D:0006H         SYMBOL        dat
  C:0046H         LINE#         36
  C:0048H         LINE#         37
  C:0048H         LINE#         38
  -------         ENDPROC       _HMC5883L_WRITE_BYTE
  -------         PROC          _HMC5883L_READ_BYTE
  D:0007H         SYMBOL        addr
  -------         DO            
  D:0007H         SYMBOL        temp
  -------         ENDDO         
  C:F474H         LINE#         45
  C:F474H         LINE#         46
  C:F474H         LINE#         48
  C:F47BH         LINE#         49
  C:F47BH         LINE#         50
  -------         ENDPROC       _HMC5883L_READ_BYTE
  -------         PROC          CHECKHMC5883LCONNECTION
  C:F2C5H         LINE#         56
  C:F2C5H         LINE#         57
  C:F2C5H         LINE#         58
  C:F2CFH         LINE#         59
  C:F2D2H         LINE#         61
  C:F2D4H         LINE#         62
  -------         ENDPROC       CHECKHMC5883LCONNECTION
  -------         PROC          _READ_HMC5883L
  X:0FE6H         SYMBOL        buf
  -------         DO            
  X:0FE9H         SYMBOL        tp
  -------         ENDDO         
  C:C531H         LINE#         68
  C:C53CH         LINE#         69
  C:C53CH         LINE#         71
  C:C553H         LINE#         72
  C:C56EH         LINE#         73
  C:C58CH         LINE#         74
  C:C59FH         LINE#         75
  C:C5B7H         LINE#         76
  C:C5DFH         LINE#         77
  C:C607H         LINE#         78
  C:C647H         LINE#         79
  -------         ENDPROC       _READ_HMC5883L
  -------         PROC          _HMC5883L_SET_CALIBRATION_VALUE
  D:0006H         SYMBOL        x_offset
  D:0004H         SYMBOL        y_offset
  D:0002H         SYMBOL        z_offset
  X:0FECH         SYMBOL        y_scale
  X:0FF0H         SYMBOL        z_scale
  C:EABBH         LINE#         88
  C:EABBH         LINE#         89
BL51 BANKED LINKER/LOCATER V6.22                                                      08/26/2021  06:15:46  PAGE 48


  C:EABBH         LINE#         90
  C:EAC3H         LINE#         91
  C:EACDH         LINE#         92
  C:EAD7H         LINE#         93
  C:EAEBH         LINE#         94
  -------         ENDPROC       _HMC5883L_SET_CALIBRATION_VALUE
  -------         PROC          _HMC5883L_SET_MODE
  D:0007H         SYMBOL        mode
  C:F3DCH         LINE#         103
  C:F3DCH         LINE#         104
  C:F3DCH         LINE#         105
  C:F3E2H         LINE#         106
  -------         ENDPROC       _HMC5883L_SET_MODE
  -------         PROC          HMC5883L_INIT
  -------         DO            
  X:0FEAH         SYMBOL        time_out
  -------         ENDDO         
  C:E656H         LINE#         114
  C:E656H         LINE#         115
  C:E656H         LINE#         116
  C:E65CH         LINE#         117
  C:E662H         LINE#         118
  C:E662H         LINE#         119
  C:E668H         LINE#         120
  C:E670H         LINE#         121
  C:E672H         LINE#         122
  C:E672H         LINE#         123
  C:E690H         LINE#         124
  C:E69EH         LINE#         125
  C:E6A8H         LINE#         127
  C:E6AAH         LINE#         128
  -------         ENDPROC       HMC5883L_INIT
  -------         PROC          _HMC5883L_GET_ANGLEXY
  X:0FE6H         SYMBOL        mag_data
  D:0004H         SYMBOL        ax
  X:0FEDH         SYMBOL        ay
  -------         DO            
  D:0004H         SYMBOL        Yaw
  X:0FF1H         SYMBOL        RadX
  X:0FF5H         SYMBOL        RadY
  X:0FF9H         SYMBOL        Xh
  D:0004H         SYMBOL        Yh
  -------         ENDDO         
  C:B2E1H         LINE#         135
  C:B2ECH         LINE#         136
  C:B2ECH         LINE#         138
  C:B300H         LINE#         139
  C:B322H         LINE#         140
  C:B44FH         LINE#         141
  C:B4DAH         LINE#         142
  C:B520H         LINE#         143
  C:B520H         LINE#         144
  -------         ENDPROC       _HMC5883L_GET_ANGLEXY
  -------         ENDMOD        HMC5883L

  -------         MODULE        LSM6DSM
  C:0000H         SYMBOL        _ICE_DUMMY_
BL51 BANKED LINKER/LOCATER V6.22                                                      08/26/2021  06:15:46  PAGE 49


  D:0080H         PUBLIC        P0
  C:E886H         PUBLIC        _LSM6DSMEnablePedometer
  D:0090H         PUBLIC        P1
  D:00A0H         PUBLIC        P2
  C:F2F5H         PUBLIC        LSM6DSMCheckConnection
  D:00B0H         PUBLIC        P3
  D:00C0H         PUBLIC        P4
  D:00C8H         PUBLIC        P5
  D:00E8H         PUBLIC        P6
  D:00F8H         PUBLIC        P7
  I:006BH         PUBLIC        exInt
  I:006FH         PUBLIC        eyInt
  I:0073H         PUBLIC        ezInt
  D:00A8H         PUBLIC        IE
  C:F15FH         PUBLIC        LSM6DSMResetStepCounter
  C:F48CH         PUBLIC        _LSM6DSMConfigGyr
  D:00B8H         PUBLIC        IP
  C:F47CH         PUBLIC        _LSM6DSMReadByte
  C:E5A4H         PUBLIC        LSM6DSMInit
  I:0077H         PUBLIC        q0
  I:007BH         PUBLIC        q1
  C:EEC7H         PUBLIC        LSM6DSMEnableTapDetection
  I:007FH         PUBLIC        q2
  I:0083H         PUBLIC        q3
  D:00D8H         PUBLIC        CCON
  C:F2D5H         PUBLIC        LSM6DSMSoftReset
  C:F385H         PUBLIC        _LSM6DSMWriteByte
  C:F146H         PUBLIC        LSM6DSMGetCurrentStep
  D:0098H         PUBLIC        SCON
  D:0088H         PUBLIC        TCON
  C:DCD9H         PUBLIC        _LSM6DSMEnableAWT
  C:F449H         PUBLIC        LSM6DSMEnableEMbeddedFunc
  C:D659H         PUBLIC        _LSM6DSMReadGYRAndACC
  C:EC37H         PUBLIC        _LSM6DSMRSetRegisterBits
  C:F484H         PUBLIC        _LSM6DSMConfigAcc
  C:F452H         PUBLIC        LSM6DSMDisablePedometer
  C:9045H         PUBLIC        _IMUupdate
  D:00D0H         PUBLIC        PSW
  -------         PROC          _LSM6DSMWRITEBYTE
  D:0007H         SYMBOL        addr
  D:0006H         SYMBOL        dat
  C:F385H         LINE#         7
  C:F387H         LINE#         8
  C:F387H         LINE#         9
  -------         ENDPROC       _LSM6DSMWRITEBYTE
  -------         PROC          _LSM6DSMREADBYTE
  D:0007H         SYMBOL        addr
  -------         DO            
  D:0007H         SYMBOL        temp
  -------         ENDDO         
  C:F47CH         LINE#         11
  C:F47CH         LINE#         12
  C:F47CH         LINE#         14
  C:F483H         LINE#         15
  C:F483H         LINE#         16
  -------         ENDPROC       _LSM6DSMREADBYTE
  -------         PROC          L?0028
BL51 BANKED LINKER/LOCATER V6.22                                                      08/26/2021  06:15:46  PAGE 50


  -------         ENDPROC       L?0028
  -------         PROC          _LSM6DSMRSETREGISTERBITS
  X:0FEFH         SYMBOL        addr
  X:0FF0H         SYMBOL        dat
  X:0FF1H         SYMBOL        SC
  -------         DO            
  D:0006H         SYMBOL        temp
  -------         ENDDO         
  C:EC37H         LINE#         17
  C:EC44H         LINE#         18
  C:EC44H         LINE#         20
  C:EC49H         LINE#         21
  C:EC51H         LINE#         22
  C:EC59H         LINE#         23
  C:EC5CH         LINE#         24
  C:EC63H         LINE#         25
  -------         ENDPROC       _LSM6DSMRSETREGISTERBITS
  -------         PROC          LSM6DSMCHECKCONNECTION
  -------         DO            
  D:0007H         SYMBOL        temp
  -------         ENDDO         
  C:F2F5H         LINE#         27
  C:F2F5H         LINE#         28
  C:F2F5H         LINE#         30
  C:F2FAH         LINE#         31
  C:F2FEH         LINE#         32
  C:F301H         LINE#         34
  C:F303H         LINE#         35
  -------         ENDPROC       LSM6DSMCHECKCONNECTION
  -------         PROC          _LSM6DSMCONFIGACC
  D:0007H         SYMBOL        acc_odr
  D:0005H         SYMBOL        acc_scale
  C:F484H         LINE#         36
  C:F484H         LINE#         37
  C:F484H         LINE#         38
  -------         ENDPROC       _LSM6DSMCONFIGACC
  -------         PROC          _LSM6DSMCONFIGGYR
  D:0007H         SYMBOL        gyr_odr
  D:0005H         SYMBOL        gyr_scale
  C:F48CH         LINE#         40
  C:F48CH         LINE#         41
  C:F48CH         LINE#         42
  -------         ENDPROC       _LSM6DSMCONFIGGYR
  -------         PROC          _LSM6DSMREADGYRANDACC
  X:0FE6H         SYMBOL        p
  -------         DO            
  X:0FE9H         SYMBOL        buf
  -------         ENDDO         
  C:D659H         LINE#         44
  C:D664H         LINE#         45
  C:D664H         LINE#         47
  C:D67BH         LINE#         49
  C:D69BH         LINE#         50
  C:D6B0H         LINE#         51
  C:D6C5H         LINE#         53
  C:D6D7H         LINE#         54
  C:D6F7H         LINE#         55
BL51 BANKED LINKER/LOCATER V6.22                                                      08/26/2021  06:15:46  PAGE 51


  -------         ENDPROC       _LSM6DSMREADGYRANDACC
  -------         PROC          LSM6DSMSOFTRESET
  C:F2D5H         LINE#         67
  C:F2D5H         LINE#         68
  C:F2D5H         LINE#         69
  C:F2DEH         LINE#         70
  -------         ENDPROC       LSM6DSMSOFTRESET
  -------         PROC          LSM6DSMENABLEEMBEDDEDFUNC
  C:F449H         LINE#         72
  C:F449H         LINE#         73
  C:F449H         LINE#         74
  -------         ENDPROC       LSM6DSMENABLEEMBEDDEDFUNC
  -------         PROC          _LSM6DSMENABLEAWT
  D:0002H         SYMBOL        angle
  D:0004H         SYMBOL        delay
  -------         DO            
  X:0FECH         SYMBOL        set_delay
  X:0FEDH         SYMBOL        set_angle
  -------         ENDDO         
  C:DCD9H         LINE#         81
  C:DCDDH         LINE#         82
  C:DCDDH         LINE#         85
  C:DCEDH         LINE#         86
  C:DD23H         LINE#         87
  C:DD2CH         LINE#         88
  C:DD2FH         LINE#         89
  C:DD38H         LINE#         90
  C:DD3BH         LINE#         91
  C:DD42H         LINE#         92
  C:DD4CH         LINE#         93
  C:DD56H         LINE#         94
  C:DD5DH         LINE#         95
  C:DD64H         LINE#         96
  C:DD69H         LINE#         98
  -------         ENDPROC       _LSM6DSMENABLEAWT
  -------         PROC          LSM6DSMENABLETAPDETECTION
  C:EEC7H         LINE#         106
  C:EEC7H         LINE#         107
  C:EEC7H         LINE#         108
  C:EED0H         LINE#         109
  C:EED9H         LINE#         110
  C:EEE0H         LINE#         111
  C:EEE5H         LINE#         112
  -------         ENDPROC       LSM6DSMENABLETAPDETECTION
  -------         PROC          _LSM6DSMENABLEPEDOMETER
  X:0FECH         SYMBOL        debounce_time
  X:0FEEH         SYMBOL        debounce_step
  C:E886H         LINE#         123
  C:E891H         LINE#         124
  C:E891H         LINE#         125
  C:E898H         LINE#         126
  C:E89FH         LINE#         127
  C:E8C0H         LINE#         128
  C:E8C7H         LINE#         129
  -------         ENDPROC       _LSM6DSMENABLEPEDOMETER
  -------         PROC          LSM6DSMGETCURRENTSTEP
  -------         DO            
BL51 BANKED LINKER/LOCATER V6.22                                                      08/26/2021  06:15:46  PAGE 52


  X:0FE6H         SYMBOL        tempL
  D:0007H         SYMBOL        tempH
  -------         ENDDO         
  C:F146H         LINE#         132
  C:F146H         LINE#         133
  C:F146H         LINE#         135
  C:F150H         LINE#         136
  C:F155H         LINE#         137
  C:F15EH         LINE#         138
  -------         ENDPROC       LSM6DSMGETCURRENTSTEP
  -------         PROC          LSM6DSMRESETSTEPCOUNTER
  C:F15FH         LINE#         139
  C:F15FH         LINE#         140
  C:F15FH         LINE#         141
  C:F168H         LINE#         142
  C:F16FH         LINE#         143
  -------         ENDPROC       LSM6DSMRESETSTEPCOUNTER
  -------         PROC          LSM6DSMDISABLEPEDOMETER
  C:F452H         LINE#         145
  C:F452H         LINE#         146
  C:F452H         LINE#         147
  -------         ENDPROC       LSM6DSMDISABLEPEDOMETER
  -------         PROC          LSM6DSMINIT
  -------         DO            
  X:0FEAH         SYMBOL        time_out
  -------         ENDDO         
  C:E5A4H         LINE#         149
  C:E5A4H         LINE#         150
  C:E5A4H         LINE#         151
  C:E5ADH         LINE#         152
  C:E5B4H         LINE#         153
  C:E5BAH         LINE#         154
  C:E5BAH         LINE#         155
  C:E5C0H         LINE#         156
  C:E5CEH         LINE#         157
  C:E5D0H         LINE#         158
  C:E5D0H         LINE#         159
  C:E5D3H         LINE#         160
  C:E5DAH         LINE#         161
  C:E5E1H         LINE#         162
  C:E5ECH         LINE#         163
  C:E5EFH         LINE#         164
  C:E5F8H         LINE#         165
  C:E5FBH         LINE#         166
  C:E5FDH         LINE#         167
  -------         ENDPROC       LSM6DSMINIT
  -------         PROC          _IMUUPDATE
  X:0FE6H         SYMBOL        p
  -------         DO            
  D:0025H         SYMBOL        norm
  I:003BH         SYMBOL        ax
  I:003FH         SYMBOL        ay
  I:0043H         SYMBOL        az
  I:0047H         SYMBOL        gx
  I:004BH         SYMBOL        gy
  I:004FH         SYMBOL        gz
  I:0053H         SYMBOL        vx
BL51 BANKED LINKER/LOCATER V6.22                                                      08/26/2021  06:15:46  PAGE 53


  I:0057H         SYMBOL        vy
  I:005BH         SYMBOL        vz
  I:005FH         SYMBOL        ex
  I:0063H         SYMBOL        ey
  I:0067H         SYMBOL        ez
  -------         ENDDO         
  C:9045H         LINE#         175
  C:9050H         LINE#         176
  C:9050H         LINE#         183
  C:905FH         LINE#         184
  C:907CH         LINE#         185
  C:9099H         LINE#         187
  C:90CCH         LINE#         188
  C:90FFH         LINE#         189
  C:9132H         LINE#         191
  C:9193H         LINE#         192
  C:91A8H         LINE#         193
  C:91BDH         LINE#         194
  C:91D2H         LINE#         200
  C:920DH         LINE#         201
  C:9248H         LINE#         202
  C:92C2H         LINE#         204
  C:92F4H         LINE#         205
  C:9326H         LINE#         206
  C:9358H         LINE#         208
  C:9385H         LINE#         209
  C:93B2H         LINE#         210
  C:93DFH         LINE#         212
  C:9404H         LINE#         213
  C:9429H         LINE#         214
  C:944EH         LINE#         216
  C:94D6H         LINE#         217
  C:9553H         LINE#         218
  C:95C8H         LINE#         219
  C:9645H         LINE#         221
  C:96C0H         LINE#         222
  C:96D5H         LINE#         223
  C:96EAH         LINE#         224
  C:96FFH         LINE#         225
  C:9714H         LINE#         227
  C:9769H         LINE#         228
  C:97BEH         LINE#         229
  -------         ENDPROC       _IMUUPDATE
  -------         ENDMOD        LSM6DSM

  -------         MODULE        POWERMANAGE
  C:0000H         SYMBOL        _ICE_DUMMY_
  D:0092H         PUBLIC        P1M0
  D:0096H         PUBLIC        P2M0
  D:0091H         PUBLIC        P1M1
  D:0080H         PUBLIC        P0
  D:0095H         PUBLIC        P2M1
  D:0090H         PUBLIC        P1
  D:00A0H         PUBLIC        P2
  D:00B0H         PUBLIC        P3
  D:00C0H         PUBLIC        P4
  C:BE00H         PUBLIC        GetBatteryLife
BL51 BANKED LINKER/LOCATER V6.22                                                      08/26/2021  06:15:46  PAGE 54


  D:00C8H         PUBLIC        P5
  D:00E8H         PUBLIC        P6
  D:00F8H         PUBLIC        P7
  D:00A8H         PUBLIC        IE
  D:00BDH         PUBLIC        ADC_RES
  D:00B8H         PUBLIC        IP
  D:00DEH         PUBLIC        ADCCFG
  C:F4A9H         PUBLIC        _Enable3V3Output
  D:00D8H         PUBLIC        CCON
  B:00C0H.0       PUBLIC        EN_3V3
  D:00BCH         PUBLIC        ADC_CONTR
  D:0087H         PUBLIC        PCON
  D:0098H         PUBLIC        SCON
  C:0016H         PUBLIC        SystemPowerDown
  D:0088H         PUBLIC        TCON
  C:EDD6H         PUBLIC        SystemDeepPowerDown
  B:0090H.7       PUBLIC        PROG
  D:00AFH         PUBLIC        IE2
  C:F0C3H         PUBLIC        _ADCRead
  B:00A8H.1       PUBLIC        ET0
  C:F3B8H         PUBLIC        SystemPowerOn
  C:D404H         PUBLIC        GetBatteryVoltage
  X:126AH         PUBLIC        BGV
  C:F49CH         PUBLIC        ADCInit
  C:F392H         PUBLIC        _BatteryChargeEnable
  D:00D0H         PUBLIC        PSW
  -------         PROC          ADCINIT
  C:F49CH         LINE#         11
  C:F49CH         LINE#         12
  C:F49CH         LINE#         13
  C:F49FH         LINE#         14
  C:F4A2H         LINE#         15
  -------         ENDPROC       ADCINIT
  -------         PROC          _ADCREAD
  D:0007H         SYMBOL        adc_ch
  -------         DO            
  D:0006H         SYMBOL        res
  -------         ENDDO         
  C:F0C3H         LINE#         21
  C:F0C3H         LINE#         22
  C:F0C3H         LINE#         24
  C:F0C8H         LINE#         25
  C:F0CBH         LINE#         26
  C:F0CCH         LINE#         27
  C:F0CDH         LINE#         28
  C:F0D2H         LINE#         29
  C:F0D5H         LINE#         30
  C:F0DDH         LINE#         31
  C:F0DDH         LINE#         32
  -------         ENDPROC       _ADCREAD
  -------         PROC          _ENABLE3V3OUTPUT
  D:0007H         SYMBOL        k
  C:F4A9H         LINE#         39
  C:F4A9H         LINE#         40
  C:F4A9H         LINE#         41
  C:F4AEH         LINE#         42
  -------         ENDPROC       _ENABLE3V3OUTPUT
BL51 BANKED LINKER/LOCATER V6.22                                                      08/26/2021  06:15:46  PAGE 55


  -------         PROC          _BATTERYCHARGEENABLE
  D:0007H         SYMBOL        k
  C:F392H         LINE#         52
  C:F392H         LINE#         53
  C:F392H         LINE#         54
  C:F395H         LINE#         55
  C:F395H         LINE#         56
  C:F398H         LINE#         57
  C:F399H         LINE#         59
  C:F399H         LINE#         60
  C:F39CH         LINE#         61
  C:F39EH         LINE#         62
  C:F39EH         LINE#         63
  -------         ENDPROC       _BATTERYCHARGEENABLE
  -------         PROC          GETBATTERYVOLTAGE
  -------         DO            
  X:0FEFH         SYMBOL        res
  X:0FF3H         SYMBOL        i
  X:0FF5H         SYMBOL        vcc
  -------         ENDDO         
  C:D404H         LINE#         69
  C:D404H         LINE#         70
  C:D404H         LINE#         71
  C:D40EH         LINE#         72
  C:D415H         LINE#         73
  C:D419H         LINE#         74
  C:D41EH         LINE#         75
  C:D423H         LINE#         76
  C:D42AH         LINE#         77
  C:D42AH         LINE#         78
  C:D455H         LINE#         79
  C:D474H         LINE#         80
  C:D48DH         LINE#         81
  C:D4C7H         LINE#         82
  C:D4D8H         LINE#         83
  -------         ENDPROC       GETBATTERYVOLTAGE
  -------         PROC          GETBATTERYLIFE
  -------         DO            
  X:1219H         SYMBOL        first_time_flag
  X:121AH         SYMBOL        queue
  X:0FE6H         SYMBOL        queue_average
  X:0FEAH         SYMBOL        percentage
  X:0FEEH         SYMBOL        i
  -------         ENDDO         
  C:BE00H         LINE#         93
  C:BE00H         LINE#         94
  C:BE00H         LINE#         97
  C:BE0AH         LINE#         99
  C:BE0FH         LINE#         100
  C:BE2EH         LINE#         101
  C:BE4AH         LINE#         102
  C:BE4AH         LINE#         103
  C:BE54H         LINE#         104
  C:BE56H         LINE#         105
  C:BE6EH         LINE#         106
  C:BE6EH         LINE#         107
  C:BE78H         LINE#         108
BL51 BANKED LINKER/LOCATER V6.22                                                      08/26/2021  06:15:46  PAGE 56


  C:BE78H         LINE#         109
  C:BE7EH         LINE#         110
  C:BE7EH         LINE#         111
  C:BE80H         LINE#         112
  C:BE8FH         LINE#         113
  C:BEB6H         LINE#         114
  C:BEB6H         LINE#         115
  C:BEC6H         LINE#         116
  C:BEC6H         LINE#         117
  C:BEE5H         LINE#         118
  C:BF15H         LINE#         119
  C:BF1DH         LINE#         120
  C:BF40H         LINE#         121
  C:BF5EH         LINE#         122
  C:BF72H         LINE#         123
  C:BF80H         LINE#         124
  -------         ENDPROC       GETBATTERYLIFE
  -------         PROC          SYSTEMPOWERDOWN
  -------         DO            
  X:0FE6H         SYMBOL        temp
  -------         ENDDO         
  C:0016H         LINE#         130
  C:0016H         LINE#         131
  C:0016H         LINE#         132
  C:001CH         LINE#         133
  C:001FH         LINE#         134
  C:0021H         LINE#         135
  C:0024H         LINE#         136
  C:0027H         LINE#         137
  C:002AH         LINE#         138
  C:002CH         LINE#         139
  C:002FH         LINE#         140
  C:0032H         LINE#         141
  C:0034H         LINE#         142
  C:0036H         LINE#         143
  C:0039H         LINE#         144
  C:003CH         LINE#         145
  C:003FH         LINE#         146
  C:0040H         LINE#         147
  C:0041H         LINE#         148
  -------         ENDPROC       SYSTEMPOWERDOWN
  -------         PROC          SYSTEMDEEPPOWERDOWN
  -------         DO            
  D:0007H         SYMBOL        temp
  -------         ENDDO         
  C:EDD6H         LINE#         155
  C:EDD6H         LINE#         156
  C:EDD6H         LINE#         157
  C:EDD8H         LINE#         158
  C:EDDBH         LINE#         159
  C:EDDDH         LINE#         160
  C:EDE0H         LINE#         161
  C:EDE3H         LINE#         162
  C:EDE6H         LINE#         163
  C:EDE8H         LINE#         164
  C:EDEAH         LINE#         165
  C:EDEDH         LINE#         166
BL51 BANKED LINKER/LOCATER V6.22                                                      08/26/2021  06:15:46  PAGE 57


  C:EDEFH         LINE#         167
  C:EDF1H         LINE#         168
  C:EDF3H         LINE#         169
  C:EDF6H         LINE#         170
  C:EDF9H         LINE#         171
  C:EDFCH         LINE#         172
  C:EDFDH         LINE#         173
  C:EDFEH         LINE#         174
  C:EE00H         LINE#         175
  -------         ENDPROC       SYSTEMDEEPPOWERDOWN
  -------         PROC          SYSTEMPOWERON
  C:F3B8H         LINE#         181
  C:F3B8H         LINE#         182
  C:F3B8H         LINE#         183
  C:F3BBH         LINE#         184
  C:F3BDH         LINE#         185
  C:F3C0H         LINE#         186
  C:F3C3H         LINE#         187
  -------         ENDPROC       SYSTEMPOWERON
  -------         ENDMOD        POWERMANAGE

  -------         MODULE        IIC
  C:0000H         SYMBOL        _ICE_DUMMY_
  D:0080H         PUBLIC        P0
  D:0090H         PUBLIC        P1
  C:F0BAH         PUBLIC        I2C_RecvACK
  D:00A0H         PUBLIC        P2
  D:00B0H         PUBLIC        P3
  D:00C0H         PUBLIC        P4
  D:00C8H         PUBLIC        P5
  D:00E8H         PUBLIC        P6
  C:F313H         PUBLIC        I2C_SendNAK
  D:00F8H         PUBLIC        P7
  D:0010H         PUBLIC        timeout
  D:00BAH         PUBLIC        P_SW2
  D:00A8H         PUBLIC        IE
  C:E917H         PUBLIC        _I2C_Read_MultiBytes
  C:EFCBH         PUBLIC        Wait
  D:00B8H         PUBLIC        IP
  C:F08AH         PUBLIC        _Single_ReadIIC
  D:00D8H         PUBLIC        CCON
  C:F1D2H         PUBLIC        _Single_WriteIIC
  C:F3C7H         PUBLIC        I2C_Start
  C:ED48H         PUBLIC        _I2C_NoAddr_Read_MultiBytes
  D:0098H         PUBLIC        SCON
  D:0088H         PUBLIC        TCON
  C:F35BH         PUBLIC        _I2C_SendByte
  C:EB43H         PUBLIC        _I2C_NoAddr_Write_MultiBytes
  C:EFC2H         PUBLIC        I2C_Stop
  C:F304H         PUBLIC        I2C_RecvByte
  C:F25FH         PUBLIC        IIC_Init
  D:00D0H         PUBLIC        PSW
  C:F369H         PUBLIC        I2C_SendACK
  -------         PROC          IIC_INIT
  C:F25FH         LINE#         9
  C:F25FH         LINE#         10
  C:F25FH         LINE#         11
BL51 BANKED LINKER/LOCATER V6.22                                                      08/26/2021  06:15:46  PAGE 58


  C:F262H         LINE#         12
  C:F268H         LINE#         13
  C:F26DH         LINE#         14
  C:F270H         LINE#         15
  -------         ENDPROC       IIC_INIT
  -------         PROC          WAIT
  C:EFCBH         LINE#         17
  C:EFCBH         LINE#         18
  C:EFCBH         LINE#         19
  C:EFD1H         LINE#         20
  C:EFD8H         LINE#         21
  C:EFD8H         LINE#         22
  C:EFE5H         LINE#         23
  C:EFE5H         LINE#         25
  C:EFECH         LINE#         26
  -------         ENDPROC       WAIT
  -------         PROC          L?0032
  -------         ENDPROC       L?0032
  -------         PROC          I2C_START
  C:F3C7H         LINE#         27
  C:F3C7H         LINE#         28
  C:F3C7H         LINE#         29
  C:F3CDH         LINE#         30
  -------         ENDPROC       I2C_START
  C:EFAEH         SYMBOL        L?0031
  -------         PROC          L?0030
  -------         ENDPROC       L?0030
  C:EFAEH         SYMBOL        L?0031
  -------         PROC          I2C_STOP
  C:EFC2H         LINE#         32
  C:EFC2H         LINE#         33
  C:EFC2H         LINE#         34
  C:EFC8H         LINE#         35
  -------         ENDPROC       I2C_STOP
  -------         PROC          _I2C_SENDBYTE
  D:0007H         SYMBOL        dat
  C:F35BH         LINE#         37
  C:F35BH         LINE#         38
  C:F35BH         LINE#         39
  C:F360H         LINE#         40
  C:F366H         LINE#         41
  -------         ENDPROC       _I2C_SENDBYTE
  -------         PROC          I2C_RECVBYTE
  C:F304H         LINE#         43
  C:F304H         LINE#         44
  C:F304H         LINE#         45
  C:F30AH         LINE#         46
  C:F30DH         LINE#         47
  C:F312H         LINE#         48
  -------         ENDPROC       I2C_RECVBYTE
  C:F0AFH         SYMBOL        L?0029
  -------         PROC          L?0028
  -------         ENDPROC       L?0028
  C:F0AFH         SYMBOL        L?0029
  -------         PROC          I2C_RECVACK
  C:F0BAH         LINE#         49
  C:F0BAH         LINE#         50
BL51 BANKED LINKER/LOCATER V6.22                                                      08/26/2021  06:15:46  PAGE 59


  C:F0BAH         LINE#         51
  C:F0C0H         LINE#         52
  -------         ENDPROC       I2C_RECVACK
  -------         PROC          I2C_SENDACK
  C:F369H         LINE#         54
  C:F369H         LINE#         55
  C:F369H         LINE#         56
  C:F36EH         LINE#         57
  C:F374H         LINE#         58
  -------         ENDPROC       I2C_SENDACK
  -------         PROC          I2C_SENDNAK
  C:F313H         LINE#         60
  C:F313H         LINE#         61
  C:F313H         LINE#         62
  C:F319H         LINE#         63
  C:F31FH         LINE#         64
  -------         ENDPROC       I2C_SENDNAK
  -------         PROC          _SINGLE_WRITEIIC
  D:0007H         SYMBOL        SlaveAddress
  D:0005H         SYMBOL        REG_Address
  D:0003H         SYMBOL        REG_data
  C:F1D2H         LINE#         69
  C:F1D2H         LINE#         70
  C:F1D2H         LINE#         71
  C:F1D2H         LINE#         72
  C:F1D5H         LINE#         73
  C:F1D5H         LINE#         74
  C:F1D5H         LINE#         75
  C:F1D5H         LINE#         76
  C:F1D8H         LINE#         77
  C:F1DDH         LINE#         78
  C:F1E0H         LINE#         79
  C:F1E3H         LINE#         80
  C:F1E6H         LINE#         81
  -------         ENDPROC       _SINGLE_WRITEIIC
  -------         PROC          _SINGLE_READIIC
  D:0006H         SYMBOL        SlaveAddress
  D:0005H         SYMBOL        REG_Address
  -------         DO            
  D:0007H         SYMBOL        REG_data
  -------         ENDDO         
  C:F08AH         LINE#         82
  C:F08CH         LINE#         83
  C:F08CH         LINE#         85
  C:F08CH         LINE#         86
  C:F08CH         LINE#         87
  C:F08CH         LINE#         88
  C:F08CH         LINE#         89
  C:F08CH         LINE#         90
  C:F08FH         LINE#         91
  C:F092H         LINE#         92
  C:F097H         LINE#         93
  C:F09AH         LINE#         94
  C:F09DH         LINE#         95
  C:F0A0H         LINE#         96
  C:F0A3H         LINE#         97
  C:F0A6H         LINE#         98
BL51 BANKED LINKER/LOCATER V6.22                                                      08/26/2021  06:15:46  PAGE 60


  C:F0A6H         LINE#         99
  -------         ENDPROC       _SINGLE_READIIC
  -------         PROC          _I2C_READ_MULTIBYTES
  D:0006H         SYMBOL        DeviceAddr
  D:0005H         SYMBOL        address
  D:0004H         SYMBOL        BytesNum
  X:100FH         SYMBOL        buf
  -------         DO            
  D:0006H         SYMBOL        i
  -------         ENDDO         
  C:E917H         LINE#         100
  C:E91BH         LINE#         101
  C:E91BH         LINE#         103
  C:E91BH         LINE#         104
  C:E91BH         LINE#         105
  C:E91BH         LINE#         106
  C:E91BH         LINE#         107
  C:E91BH         LINE#         108
  C:E91EH         LINE#         109
  C:E921H         LINE#         110
  C:E927H         LINE#         111
  C:E92AH         LINE#         112
  C:E934H         LINE#         113
  C:E934H         LINE#         114
  C:E94BH         LINE#         115
  C:E94EH         LINE#         116
  C:E951H         LINE#         117
  C:E957H         LINE#         118
  C:E957H         LINE#         119
  C:E95AH         LINE#         120
  C:E95DH         LINE#         121
  -------         ENDPROC       _I2C_READ_MULTIBYTES
  -------         PROC          _I2C_NOADDR_WRITE_MULTIBYTES
  D:0007H         SYMBOL        DeviceAddr
  D:0005H         SYMBOL        BytesNum
  X:0FF2H         SYMBOL        buf
  -------         DO            
  D:0006H         SYMBOL        i
  -------         ENDDO         
  C:EB43H         LINE#         123
  C:EB4EH         LINE#         124
  C:EB4EH         LINE#         125
  C:EB50H         LINE#         126
  C:EB50H         LINE#         127
  C:EB53H         LINE#         128
  C:EB56H         LINE#         129
  C:EB59H         LINE#         130
  C:EB5EH         LINE#         131
  C:EB5EH         LINE#         132
  C:EB75H         LINE#         133
  C:EB78H         LINE#         134
  C:EB7BH         LINE#         135
  C:EB7EH         LINE#         136
  C:EB81H         LINE#         137
  -------         ENDPROC       _I2C_NOADDR_WRITE_MULTIBYTES
  -------         PROC          _I2C_NOADDR_READ_MULTIBYTES
  D:0007H         SYMBOL        DeviceAddr
BL51 BANKED LINKER/LOCATER V6.22                                                      08/26/2021  06:15:46  PAGE 61


  D:0005H         SYMBOL        BytesNum
  X:0FEEH         SYMBOL        buf
  -------         DO            
  D:0006H         SYMBOL        i
  -------         ENDDO         
  C:ED48H         LINE#         138
  C:ED53H         LINE#         139
  C:ED53H         LINE#         141
  C:ED56H         LINE#         142
  C:ED59H         LINE#         143
  C:ED5FH         LINE#         144
  C:ED62H         LINE#         145
  C:ED6CH         LINE#         146
  C:ED6CH         LINE#         147
  C:ED6CH         LINE#         148
  C:ED6CH         LINE#         149
  C:ED6FH         LINE#         150
  C:ED72H         LINE#         151
  C:ED72H         LINE#         152
  C:ED72H         LINE#         153
  C:ED75H         LINE#         154
  C:ED78H         LINE#         155
  -------         ENDPROC       _I2C_NOADDR_READ_MULTIBYTES
  -------         ENDMOD        IIC

  -------         MODULE        SYS
  C:0000H         SYMBOL        _ICE_DUMMY_
  D:0092H         PUBLIC        P1M0
  D:0093H         PUBLIC        P0M1
  D:0096H         PUBLIC        P2M0
  D:0091H         PUBLIC        P1M1
  D:0080H         PUBLIC        P0
  D:00B2H         PUBLIC        P3M0
  D:0095H         PUBLIC        P2M1
  D:0090H         PUBLIC        P1
  D:00B4H         PUBLIC        P4M0
  D:00B1H         PUBLIC        P3M1
  D:00A0H         PUBLIC        P2
  D:00CAH         PUBLIC        P5M0
  D:00B3H         PUBLIC        P4M1
  D:00B0H         PUBLIC        P3
  D:00C9H         PUBLIC        P5M1
  D:00C0H         PUBLIC        P4
  D:00C8H         PUBLIC        P5
  B:00A8H.7       PUBLIC        EA
  D:00E8H         PUBLIC        P6
  D:00F8H         PUBLIC        P7
  C:0006H         PUBLIC        MCUSoftReset
  C:0056H         PUBLIC        FeedWatchDog
  D:00A8H         PUBLIC        IE
  D:008FH         PUBLIC        INTCLKO
  D:00B8H         PUBLIC        IP
  B:0098H.1       PUBLIC        TI
  D:00D8H         PUBLIC        CCON
  C:D7BBH         PUBLIC        _EEPROMReadConfiguration
  B:0090H.2       PUBLIC        P12
  D:0098H         PUBLIC        SCON
BL51 BANKED LINKER/LOCATER V6.22                                                      08/26/2021  06:15:46  PAGE 62


  C:F178H         PUBLIC        UartInit
  D:0089H         PUBLIC        TMOD
  D:0088H         PUBLIC        TCON
  B:0090H.6       PUBLIC        P16
  B:00B0H.5       PUBLIC        P35
  C:E085H         PUBLIC        _EEPROMWriteConfiguration
  C:ED79H         PUBLIC        PinInit
  D:00AFH         PUBLIC        IE2
  D:008EH         PUBLIC        AUXR
  D:00C7H         PUBLIC        IAP_CONTR
  X:11A4H         PUBLIC        default_config
  B:00A8H.1       PUBLIC        ET0
  B:00A8H.3       PUBLIC        ET1
  C:F39FH         PUBLIC        Timer0Init
  D:008CH         PUBLIC        TH0
  D:008DH         PUBLIC        TH1
  B:0088H.0       PUBLIC        IT0
  B:00A8H.0       PUBLIC        EX0
  C:F2E5H         PUBLIC        Timer3Init
  D:00D6H         PUBLIC        T2H
  B:0088H.2       PUBLIC        IT1
  B:00A8H.2       PUBLIC        EX1
  D:00D4H         PUBLIC        T3H
  D:008AH         PUBLIC        TL0
  D:008BH         PUBLIC        TL1
  D:00D7H         PUBLIC        T2L
  D:00D5H         PUBLIC        T3L
  C:F494H         PUBLIC        _LED
  B:0088H.4       PUBLIC        TR0
  C:E95EH         PUBLIC        SysInit
  B:0088H.6       PUBLIC        TR1
  D:00C1H         PUBLIC        WDT_CONTR
  D:00D1H         PUBLIC        T4T3M
  C:000EH         PUBLIC        EnableWatchDog
  D:009AH         PUBLIC        S2CON
  C:F23AH         PUBLIC        Uart2Init
  C:F3D0H         PUBLIC        InitConfig
  D:00D0H         PUBLIC        PSW
  D:0094H         PUBLIC        P0M0
  -------         PROC          PININIT
  C:ED79H         LINE#         44
  C:ED79H         LINE#         45
  C:ED79H         LINE#         48
  C:ED7CH         LINE#         49
  C:ED7EH         LINE#         50
  C:ED80H         LINE#         56
  C:ED82H         LINE#         57
  C:ED84H         LINE#         58
  C:ED87H         LINE#         59
  C:ED8AH         LINE#         66
  C:ED8DH         LINE#         67
  C:ED90H         LINE#         68
  C:ED92H         LINE#         75
  C:ED95H         LINE#         76
  C:ED97H         LINE#         77
  C:ED99H         LINE#         80
  C:ED9CH         LINE#         81
BL51 BANKED LINKER/LOCATER V6.22                                                      08/26/2021  06:15:46  PAGE 63


  C:ED9EH         LINE#         82
  C:EDA0H         LINE#         84
  C:EDA3H         LINE#         85
  C:EDA5H         LINE#         86
  C:EDA7H         LINE#         87
  -------         ENDPROC       PININIT
  -------         PROC          TIMER0INIT
  C:F39FH         LINE#         89
  C:F39FH         LINE#         90
  C:F39FH         LINE#         91
  C:F3A2H         LINE#         92
  C:F3A5H         LINE#         93
  C:F3A7H         LINE#         94
  C:F3A9H         LINE#         95
  C:F3ABH         LINE#         96
  -------         ENDPROC       TIMER0INIT
  -------         PROC          TIMER3INIT
  C:F2E5H         LINE#         97
  C:F2E5H         LINE#         98
  C:F2E5H         LINE#         99
  C:F2E8H         LINE#         100
  C:F2EBH         LINE#         101
  C:F2EEH         LINE#         102
  C:F2F1H         LINE#         103
  C:F2F4H         LINE#         104
  -------         ENDPROC       TIMER3INIT
  -------         PROC          UARTINIT
  C:F178H         LINE#         175
  C:F178H         LINE#         176
  C:F178H         LINE#         177
  C:F17BH         LINE#         178
  C:F17EH         LINE#         179
  C:F181H         LINE#         180
  C:F184H         LINE#         181
  C:F187H         LINE#         182
  C:F18AH         LINE#         183
  C:F18CH         LINE#         184
  C:F18EH         LINE#         185
  C:F190H         LINE#         186
  -------         ENDPROC       UARTINIT
  -------         PROC          UART2INIT
  C:F23AH         LINE#         190
  C:F23AH         LINE#         191
  C:F23AH         LINE#         192
  C:F23DH         LINE#         193
  C:F240H         LINE#         194
  C:F243H         LINE#         195
  C:F246H         LINE#         196
  C:F249H         LINE#         197
  C:F24CH         LINE#         198
  -------         ENDPROC       UART2INIT
  -------         PROC          INITCONFIG
  C:F3D0H         LINE#         200
  C:F3D0H         LINE#         201
  C:F3D0H         LINE#         202
  C:F3D2H         LINE#         203
  C:F3D4H         LINE#         204
BL51 BANKED LINKER/LOCATER V6.22                                                      08/26/2021  06:15:46  PAGE 64


  C:F3D6H         LINE#         205
  C:F3D8H         LINE#         206
  C:F3DBH         LINE#         209
  -------         ENDPROC       INITCONFIG
  -------         PROC          MCUSOFTRESET
  C:0006H         LINE#         210
  C:0006H         LINE#         211
  C:0006H         LINE#         212
  C:0009H         LINE#         213
  -------         ENDPROC       MCUSOFTRESET
  -------         PROC          ENABLEWATCHDOG
  C:000EH         LINE#         215
  C:000EH         LINE#         216
  C:000EH         LINE#         217
  C:0011H         LINE#         218
  -------         ENDPROC       ENABLEWATCHDOG
  -------         PROC          FEEDWATCHDOG
  C:0056H         LINE#         219
  C:0056H         LINE#         220
  C:0056H         LINE#         221
  C:0059H         LINE#         222
  -------         ENDPROC       FEEDWATCHDOG
  -------         PROC          _EEPROMWRITECONFIGURATION
  X:0FE6H         SYMBOL        config
  -------         DO            
  D:0007H         SYMBOL        i
  X:0FE9H         SYMBOL        temp
  -------         ENDDO         
  C:E085H         LINE#         223
  C:E090H         LINE#         224
  C:E090H         LINE#         225
  C:E092H         LINE#         226
  C:E096H         LINE#         227
  C:E096H         LINE#         228
  C:E0BCH         LINE#         229
  C:E0D8H         LINE#         230
  C:E0DFH         LINE#         231
  -------         ENDPROC       _EEPROMWRITECONFIGURATION
  -------         PROC          _EEPROMREADCONFIGURATION
  X:0FE6H         SYMBOL        config
  -------         DO            
  X:0FE9H         SYMBOL        i
  X:0FEAH         SYMBOL        temp
  -------         ENDDO         
  C:D7BBH         LINE#         234
  C:D7C6H         LINE#         235
  C:D7C6H         LINE#         236
  C:D7C9H         LINE#         237
  C:D7CDH         LINE#         238
  C:D7DCH         LINE#         239
  C:D7E6H         LINE#         240
  C:D80FH         LINE#         241
  C:D82DH         LINE#         242
  C:D830H         LINE#         244
  C:D830H         LINE#         245
  C:D835H         LINE#         246
  C:D867H         LINE#         247
BL51 BANKED LINKER/LOCATER V6.22                                                      08/26/2021  06:15:46  PAGE 65


  C:D869H         LINE#         248
  C:D869H         LINE#         249
  -------         ENDPROC       _EEPROMREADCONFIGURATION
  -------         PROC          _LED
  D:0007H         SYMBOL        k
  C:F494H         LINE#         251
  C:F494H         LINE#         252
  C:F494H         LINE#         253
  C:F49BH         LINE#         254
  -------         ENDPROC       _LED
  -------         PROC          SYSINIT
  C:E95EH         LINE#         256
  C:E95EH         LINE#         257
  C:E95EH         LINE#         258
  C:E961H         LINE#         259
  C:E964H         LINE#         260
  C:E967H         LINE#         261
  C:E96AH         LINE#         262
  C:E96DH         LINE#         263
  C:E970H         LINE#         264
  C:E973H         LINE#         265
  C:E976H         LINE#         266
  C:E979H         LINE#         267
  C:E982H         LINE#         268
  C:E985H         LINE#         269
  C:E98DH         LINE#         270
  C:E992H         LINE#         271
  C:E996H         LINE#         272
  C:E99DH         LINE#         273
  C:E9A2H         LINE#         274
  C:E9A4H         LINE#         275
  -------         ENDPROC       SYSINIT
  -------         ENDMOD        SYS

  -------         MODULE        EEPROM
  C:0000H         SYMBOL        _ICE_DUMMY_
  D:0080H         PUBLIC        P0
  D:0090H         PUBLIC        P1
  D:00A0H         PUBLIC        P2
  D:00B0H         PUBLIC        P3
  C:F377H         PUBLIC        DisableEEPROM
  D:00C0H         PUBLIC        P4
  D:00C8H         PUBLIC        P5
  B:00A8H.7       PUBLIC        EA
  D:00E8H         PUBLIC        P6
  D:00F8H         PUBLIC        P7
  D:00A8H         PUBLIC        IE
  D:00C5H         PUBLIC        IAP_CMD
  C:EF15H         PUBLIC        _EEPROM_SectorErase
  C:EA31H         PUBLIC        _EEPROM_read_n
  D:00B8H         PUBLIC        IP
  D:00C3H         PUBLIC        IAP_ADDRH
  D:00D8H         PUBLIC        CCON
  D:00C4H         PUBLIC        IAP_ADDRL
  C:EA76H         PUBLIC        _EEPROM_write_n
  D:0098H         PUBLIC        SCON
  D:0088H         PUBLIC        TCON
BL51 BANKED LINKER/LOCATER V6.22                                                      08/26/2021  06:15:46  PAGE 66


  D:00C7H         PUBLIC        IAP_CONTR
  D:00C2H         PUBLIC        IAP_DATA
  D:00C6H         PUBLIC        IAP_TRIG
  B:00D0H.5       PUBLIC        F0
  D:00D0H         PUBLIC        PSW
  -------         PROC          DISABLEEEPROM
  C:F377H         LINE#         12
  C:F377H         LINE#         13
  C:F377H         LINE#         14
  C:F37AH         LINE#         15
  C:F37CH         LINE#         16
  C:F37EH         LINE#         17
  C:F381H         LINE#         18
  C:F384H         LINE#         19
  -------         ENDPROC       DISABLEEEPROM
  -------         PROC          _EEPROM_READ_N
  D:0004H         SYMBOL        EE_address
  D:0001H         SYMBOL        DataAddress
  X:0FF1H         SYMBOL        number
  C:EA31H         LINE#         29
  C:EA35H         LINE#         30
  C:EA35H         LINE#         31
  C:EA39H         LINE#         32
  C:EA3BH         LINE#         33
  C:EA3EH         LINE#         34
  C:EA41H         LINE#         36
  C:EA41H         LINE#         37
  C:EA44H         LINE#         38
  C:EA48H         LINE#         39
  C:EA4EH         LINE#         40
  C:EA4FH         LINE#         41
  C:EA54H         LINE#         42
  C:EA59H         LINE#         43
  C:EA60H         LINE#         44
  C:EA6EH         LINE#         46
  C:EA71H         LINE#         47
  C:EA75H         LINE#         48
  -------         ENDPROC       _EEPROM_READ_N
  -------         PROC          _EEPROM_SECTORERASE
  D:0004H         SYMBOL        EE_address
  C:EF15H         LINE#         57
  C:EF19H         LINE#         58
  C:EF19H         LINE#         59
  C:EF1DH         LINE#         60
  C:EF20H         LINE#         61
  C:EF24H         LINE#         62
  C:EF27H         LINE#         63
  C:EF2AH         LINE#         64
  C:EF30H         LINE#         65
  C:EF31H         LINE#         66
  C:EF34H         LINE#         67
  C:EF3AH         LINE#         68
  -------         ENDPROC       _EEPROM_SECTORERASE
  -------         PROC          _EEPROM_WRITE_N
  D:0004H         SYMBOL        EE_address
  D:0001H         SYMBOL        DataAddress
  X:0FF0H         SYMBOL        number
BL51 BANKED LINKER/LOCATER V6.22                                                      08/26/2021  06:15:46  PAGE 67


  C:EA76H         LINE#         78
  C:EA7AH         LINE#         79
  C:EA7AH         LINE#         80
  C:EA7EH         LINE#         81
  C:EA80H         LINE#         82
  C:EA83H         LINE#         83
  C:EA86H         LINE#         85
  C:EA86H         LINE#         86
  C:EA89H         LINE#         87
  C:EA8DH         LINE#         88
  C:EA92H         LINE#         89
  C:EA98H         LINE#         90
  C:EA99H         LINE#         91
  C:EA9EH         LINE#         92
  C:EAA5H         LINE#         93
  C:EAB3H         LINE#         94
  C:EAB6H         LINE#         95
  C:EABAH         LINE#         96
  -------         ENDPROC       _EEPROM_WRITE_N
  -------         ENDMOD        EEPROM

  -------         MODULE        BUZZER
  C:0000H         SYMBOL        _ICE_DUMMY_
  D:0080H         PUBLIC        P0
  D:0090H         PUBLIC        P1
  D:00A0H         PUBLIC        P2
  D:00B0H         PUBLIC        P3
  D:00C0H         PUBLIC        P4
  D:00C8H         PUBLIC        P5
  D:00E8H         PUBLIC        P6
  D:00F8H         PUBLIC        P7
  D:00FEH         PUBLIC        PWMCR
  D:00BAH         PUBLIC        P_SW2
  C:F1FCH         PUBLIC        Bee
  D:00A8H         PUBLIC        IE
  D:00B8H         PUBLIC        IP
  C:ECA6H         PUBLIC        BuzzerInit
  D:00D8H         PUBLIC        CCON
  B:00A0H.6       PUBLIC        buzzer
  B:00A0H.0       PUBLIC        P20
  D:0098H         PUBLIC        SCON
  X:12DEH         PUBLIC        bee_mode
  D:0088H         PUBLIC        TCON
  X:12DFH         PUBLIC        bee_time
  D:00AFH         PUBLIC        IE2
  D:00D2H         PUBLIC        T4H
  C:F45BH         PUBLIC        _EnableBuzzer
  D:00D3H         PUBLIC        T4L
  D:00D1H         PUBLIC        T4T3M
  B:0024H.1       PUBLIC        bee_en
  C:F1E7H         PUBLIC        _BuzzerOnOff
  C:DD72H         PUBLIC        TM4_Isr
  C:F322H         PUBLIC        Beebeebee
  D:00EFH         PUBLIC        AUXINTIF
  D:00D0H         PUBLIC        PSW
  -------         PROC          BUZZERINIT
  C:ECA6H         LINE#         18
BL51 BANKED LINKER/LOCATER V6.22                                                      08/26/2021  06:15:46  PAGE 68


  C:ECA6H         LINE#         19
  C:ECA6H         LINE#         20
  C:ECA9H         LINE#         22
  C:ECAEH         LINE#         23
  C:ECB8H         LINE#         25
  C:ECBEH         LINE#         27
  C:ECC5H         LINE#         28
  C:ECCDH         LINE#         30
  C:ECD0H         LINE#         32
  C:ECD3H         LINE#         33
  C:ECD6H         LINE#         34
  C:ECD9H         LINE#         35
  C:ECDCH         LINE#         36
  C:ECDEH         LINE#         37
  -------         ENDPROC       BUZZERINIT
  -------         PROC          _BUZZERONOFF
  D:0007H         SYMBOL        b
  C:F1E7H         LINE#         38
  C:F1E7H         LINE#         39
  C:F1E7H         LINE#         40
  C:F1EAH         LINE#         41
  C:F1EEH         LINE#         42
  C:F1EEH         LINE#         43
  C:F1F1H         LINE#         44
  C:F1F3H         LINE#         46
  C:F1F3H         LINE#         47
  C:F1F6H         LINE#         48
  C:F1F8H         LINE#         49
  C:F1F8H         LINE#         50
  C:F1FBH         LINE#         51
  -------         ENDPROC       _BUZZERONOFF
  -------         PROC          TM4_ISR
  C:DD72H         LINE#         52
  C:DD7FH         LINE#         54
  C:DD82H         LINE#         55
  C:DD89H         LINE#         56
  C:DD89H         LINE#         57
  C:DD93H         LINE#         58
  C:DD93H         LINE#         59
  C:DD99H         LINE#         60
  C:DD9DH         LINE#         61
  C:DDA0H         LINE#         62
  C:DDA0H         LINE#         63
  C:DDA2H         LINE#         64
  C:DDA7H         LINE#         65
  C:DDA7H         LINE#         66
  C:DDB7H         LINE#         67
  C:DDB7H         LINE#         68
  C:DDC2H         LINE#         69
  C:DDC2H         LINE#         70
  C:DDDAH         LINE#         71
  C:DDEDH         LINE#         72
  C:DDEDH         LINE#         73
  C:DDEDH         LINE#         74
  C:DDF9H         LINE#         75
  C:DDF9H         LINE#         76
  C:DE00H         LINE#         77
BL51 BANKED LINKER/LOCATER V6.22                                                      08/26/2021  06:15:46  PAGE 69


  C:DE00H         LINE#         78
  C:DE00H         LINE#         79
  -------         ENDPROC       TM4_ISR
  -------         PROC          BEE
  C:F1FCH         LINE#         80
  C:F1FCH         LINE#         81
  C:F1FCH         LINE#         82
  C:F201H         LINE#         83
  C:F205H         LINE#         84
  C:F208H         LINE#         85
  C:F208H         LINE#         86
  C:F20DH         LINE#         87
  C:F210H         LINE#         88
  C:F210H         LINE#         89
  -------         ENDPROC       BEE
  -------         PROC          BEEBEEBEE
  C:F322H         LINE#         90
  C:F322H         LINE#         91
  C:F322H         LINE#         92
  C:F328H         LINE#         93
  C:F32DH         LINE#         95
  C:F330H         LINE#         96
  -------         ENDPROC       BEEBEEBEE
  -------         PROC          _ENABLEBUZZER
  D:0007H         SYMBOL        k
  C:F45BH         LINE#         97
  C:F45BH         LINE#         98
  C:F45BH         LINE#         99
  C:F45EH         LINE#         100
  C:F461H         LINE#         102
  C:F463H         LINE#         103
  -------         ENDPROC       _ENABLEBUZZER
  -------         ENDMOD        BUZZER

  -------         MODULE        DELAY
  C:0000H         SYMBOL        _ICE_DUMMY_
  C:F113H         PUBLIC        _Delay1ms
  C:F211H         PUBLIC        _Delay1us
  -------         PROC          _DELAY1MS
  D:0006H         SYMBOL        t
  -------         DO            
  D:0005H         SYMBOL        i
  D:0004H         SYMBOL        j
  -------         ENDDO         
  C:F113H         LINE#         3
  C:F113H         LINE#         4
  C:F113H         LINE#         6
  C:F11CH         LINE#         7
  C:F11CH         LINE#         8
  C:F11DH         LINE#         9
  C:F11FH         LINE#         10
  C:F121H         LINE#         12
  C:F121H         LINE#         13
  C:F123H         LINE#         14
  C:F125H         LINE#         16
  C:F12CH         LINE#         17
  -------         ENDPROC       _DELAY1MS
BL51 BANKED LINKER/LOCATER V6.22                                                      08/26/2021  06:15:46  PAGE 70


  -------         PROC          _DELAY1US
  D:0006H         SYMBOL        t
  -------         DO            
  D:0005H         SYMBOL        i
  -------         ENDDO         
  C:F211H         LINE#         18
  C:F211H         LINE#         19
  C:F211H         LINE#         21
  C:F21AH         LINE#         22
  C:F21AH         LINE#         23
  C:F21CH         LINE#         24
  C:F21EH         LINE#         25
  C:F225H         LINE#         26
  -------         ENDPROC       _DELAY1US
  -------         ENDMOD        DELAY

  -------         MODULE        DISPLAY
  C:0000H         SYMBOL        _ICE_DUMMY_
  X:0008H         PUBLIC        main_cache
  D:0080H         PUBLIC        P0
  D:0090H         PUBLIC        P1
  D:00A0H         PUBLIC        P2
  D:00B0H         PUBLIC        P3
  D:00C0H         PUBLIC        P4
  D:00C8H         PUBLIC        P5
  D:00E8H         PUBLIC        P6
  D:00F8H         PUBLIC        P7
  C:83FBH         PUBLIC        F6X8
  D:00A8H         PUBLIC        IE
  D:00B8H         PUBLIC        IP
  C:ABA3H         PUBLIC        _DrawLine
  C:A86FH         PUBLIC        _ShowString
  D:00D8H         PUBLIC        CCON
  C:B71FH         PUBLIC        _DrawSelectionFrame
  C:C67CH         PUBLIC        _ScreeRollDown
  C:9D3AH         PUBLIC        _ScreenPushAnimation
  C:B521H         PUBLIC        _DrawArm
  C:F3E7H         PUBLIC        _ScreenSetBrightness
  C:E430H         PUBLIC        _ScreenRefreshArea
  D:0098H         PUBLIC        SCON
  D:0088H         PUBLIC        TCON
  C:E6C6H         PUBLIC        _DrawDot
  C:F191H         PUBLIC        _ScreenSetDirection
  C:DF17H         PUBLIC        _ClearCacheArea
  C:8635H         PUBLIC        F8X16
  C:F424H         PUBLIC        _ScreenOnOff
  C:EB88H         PUBLIC        _ClearCache
  C:009EH         PUBLIC        _ScreenRefreshAll
  X:0408H         PUBLIC        sub_cache1
  X:0808H         PUBLIC        sub_cache2
  C:CD51H         PUBLIC        _ScreeRollUp
  C:AE25H         PUBLIC        _DisplayTime
  C:E700H         PUBLIC        _DisplayInit
  C:8C25H         PUBLIC        F16X48
  C:F4AFH         PUBLIC        _ScreenSetInverse
  C:ED16H         PUBLIC        SaveScreen
  D:00D0H         PUBLIC        PSW
BL51 BANKED LINKER/LOCATER V6.22                                                      08/26/2021  06:15:46  PAGE 71


  C:C3DAH         PUBLIC        _BMPToCache
  -------         PROC          _DISPLAYINIT
  X:0FE6H         SYMBOL        config
  C:E700H         LINE#         18
  C:E70BH         LINE#         19
  C:E70BH         LINE#         20
  C:E70EH         LINE#         21
  C:E723H         LINE#         22
  C:E738H         LINE#         23
  C:E74DH         LINE#         24
  -------         ENDPROC       _DISPLAYINIT
  -------         PROC          _BMPTOCACHE
  X:0FE6H         SYMBOL        x
  X:0FE7H         SYMBOL        y
  X:0FE8H         SYMBOL        width
  X:0FE9H         SYMBOL        height
  X:0FEAH         SYMBOL        buf1
  X:0FEDH         SYMBOL        buf2
  X:0FF0H         SYMBOL        k
  -------         DO            
  D:0025H         SYMBOL        i
  D:0026H         SYMBOL        j
  D:0027H         SYMBOL        num1
  D:0029H         SYMBOL        num2
  D:002BH         SYMBOL        num3
  -------         ENDDO         
  C:C3DAH         LINE#         35
  C:C3E5H         LINE#         36
  C:C3E5H         LINE#         39
  C:C3F1H         LINE#         40
  C:C3FAH         LINE#         41
  C:C3FAH         LINE#         42
  C:C40CH         LINE#         43
  C:C40CH         LINE#         44
  C:C42DH         LINE#         45
  C:C43CH         LINE#         46
  C:C44AH         LINE#         47
  C:C488H         LINE#         48
  C:C48DH         LINE#         49
  C:C48DH         LINE#         51
  C:C48DH         LINE#         52
  C:C4A0H         LINE#         53
  C:C4A0H         LINE#         54
  C:C4C1H         LINE#         55
  C:C4D0H         LINE#         56
  C:C4DEH         LINE#         57
  C:C52BH         LINE#         58
  C:C530H         LINE#         59
  C:C530H         LINE#         67
  -------         ENDPROC       _BMPTOCACHE
  -------         PROC          L?0265
  -------         ENDPROC       L?0265
  -------         PROC          _CLEARCACHE
  X:0FF5H         SYMBOL        buf
  -------         DO            
  D:002FH         SYMBOL        i
  -------         ENDDO         
BL51 BANKED LINKER/LOCATER V6.22                                                      08/26/2021  06:15:46  PAGE 72


  C:EB88H         LINE#         73
  C:EB93H         LINE#         74
  C:EB93H         LINE#         76
  C:EB98H         LINE#         77
  C:EBBDH         LINE#         78
  -------         ENDPROC       _CLEARCACHE
  -------         PROC          _CLEARCACHEAREA
  X:0FE6H         SYMBOL        x
  X:0FE7H         SYMBOL        y
  X:0FE8H         SYMBOL        width
  X:0FE9H         SYMBOL        height
  X:0FEAH         SYMBOL        buf1
  -------         DO            
  D:0025H         SYMBOL        i
  D:0026H         SYMBOL        j
  D:0027H         SYMBOL        num1
  D:0029H         SYMBOL        num2
  -------         ENDDO         
  C:DF17H         LINE#         85
  C:DF22H         LINE#         86
  C:DF22H         LINE#         89
  C:DF2EH         LINE#         90
  C:DF3EH         LINE#         91
  C:DF3EH         LINE#         92
  C:DF5FH         LINE#         93
  C:DF6DH         LINE#         94
  C:DF6DH         LINE#         95
  C:DF8BH         LINE#         96
  C:DF8FH         LINE#         97
  C:DF93H         LINE#         98
  -------         ENDPROC       _CLEARCACHEAREA
  -------         PROC          SAVESCREEN
  -------         DO            
  D:0025H         SYMBOL        n
  -------         ENDDO         
  C:ED16H         LINE#         104
  C:ED16H         LINE#         105
  C:ED16H         LINE#         107
  C:ED1BH         LINE#         108
  C:ED47H         LINE#         109
  -------         ENDPROC       SAVESCREEN
  -------         PROC          _SCREENREFRESHALL
  D:0001H         SYMBOL        cache_buf
  C:009EH         LINE#         115
  C:009EH         LINE#         116
  C:009EH         LINE#         117
  -------         ENDPROC       _SCREENREFRESHALL
  -------         PROC          _SCREENREFRESHAREA
  X:0FF5H         SYMBOL        x
  D:0005H         SYMBOL        y
  X:0FF7H         SYMBOL        width
  X:0FF8H         SYMBOL        height
  -------         DO            
  D:002FH         SYMBOL        i
  D:0030H         SYMBOL        j
  D:0031H         SYMBOL        n
  -------         ENDDO         
BL51 BANKED LINKER/LOCATER V6.22                                                      08/26/2021  06:15:46  PAGE 73


  C:E430H         LINE#         125
  C:E43AH         LINE#         126
  C:E43AH         LINE#         129
  C:E449H         LINE#         130
  C:E449H         LINE#         131
  C:E453H         LINE#         132
  C:E45EH         LINE#         133
  C:E46CH         LINE#         134
  C:E48CH         LINE#         135
  C:E490H         LINE#         136
  -------         ENDPROC       _SCREENREFRESHAREA
  -------         PROC          _SCREENPUSHANIMATION
  X:0FE6H         SYMBOL        cache
  X:0FE9H         SYMBOL        direction
  -------         DO            
  D:0025H         SYMBOL        n
  D:0026H         SYMBOL        i
  D:0027H         SYMBOL        j
  D:0029H         SYMBOL        num1
  D:002BH         SYMBOL        num2
  -------         ENDDO         
  C:9D3AH         LINE#         147
  C:9D48H         LINE#         148
  C:9D48H         LINE#         152
  C:9D4DH         LINE#         153
  C:9D4DH         LINE#         154
  C:9D4FH         LINE#         155
  C:9D4FH         LINE#         156
  C:9D52H         LINE#         157
  C:9D52H         LINE#         158
  C:9D5DH         LINE#         159
  C:9D66H         LINE#         160
  C:9D77H         LINE#         161
  C:9D77H         LINE#         162
  C:9DABH         LINE#         163
  C:9DB5H         LINE#         164
  C:9DBCH         LINE#         165
  C:9DCBH         LINE#         166
  C:9DE0H         LINE#         167
  C:9DE3H         LINE#         168
  C:9DE3H         LINE#         169
  C:9E2FH         LINE#         170
  C:9E36H         LINE#         171
  C:9E3FH         LINE#         172
  C:9E4CH         LINE#         173
  C:9E4CH         LINE#         174
  C:9E57H         LINE#         175
  C:9E57H         LINE#         176
  C:9E59H         LINE#         177
  C:9E59H         LINE#         178
  C:9E5CH         LINE#         179
  C:9E5CH         LINE#         180
  C:9E74H         LINE#         181
  C:9E7DH         LINE#         182
  C:9E8EH         LINE#         183
  C:9ECCH         LINE#         184
  C:9ED4H         LINE#         185
BL51 BANKED LINKER/LOCATER V6.22                                                      08/26/2021  06:15:46  PAGE 74


  C:9EF2H         LINE#         186
  C:9F07H         LINE#         187
  C:9F0AH         LINE#         188
  C:9F5DH         LINE#         189
  C:9F66H         LINE#         190
  C:9F73H         LINE#         191
  C:9F73H         LINE#         192
  C:9F7EH         LINE#         193
  C:9F7EH         LINE#         194
  C:9F80H         LINE#         195
  C:9F80H         LINE#         196
  C:9F83H         LINE#         197
  C:9F83H         LINE#         198
  C:9F8EH         LINE#         199
  C:9F97H         LINE#         200
  C:9FA8H         LINE#         201
  C:9FCEH         LINE#         202
  C:9FFBH         LINE#         203
  C:A037H         LINE#         204
  C:A042H         LINE#         205
  C:A04BH         LINE#         206
  C:A058H         LINE#         207
  C:A058H         LINE#         208
  C:A063H         LINE#         209
  C:A063H         LINE#         210
  C:A065H         LINE#         211
  C:A065H         LINE#         212
  C:A068H         LINE#         213
  C:A068H         LINE#         214
  C:A073H         LINE#         215
  C:A07CH         LINE#         216
  C:A08CH         LINE#         217
  C:A0B2H         LINE#         218
  C:A0EAH         LINE#         219
  C:A116H         LINE#         220
  C:A121H         LINE#         221
  C:A12AH         LINE#         222
  C:A136H         LINE#         223
  C:A136H         LINE#         224
  -------         ENDPROC       _SCREENPUSHANIMATION
  -------         PROC          L?0264
  -------         ENDPROC       L?0264
  -------         PROC          _SCREEROLLUP
  X:0FF5H         SYMBOL        buf2
  X:0FF8H         SYMBOL        num
  -------         DO            
  D:002FH         SYMBOL        n
  D:0030H         SYMBOL        i
  D:0031H         SYMBOL        j
  D:0033H         SYMBOL        num1
  D:0035H         SYMBOL        num2
  -------         ENDDO         
  C:CD51H         LINE#         231
  C:CD5FH         LINE#         232
  C:CD5FH         LINE#         235
  C:CD70H         LINE#         236
  C:CD70H         LINE#         237
BL51 BANKED LINKER/LOCATER V6.22                                                      08/26/2021  06:15:46  PAGE 75


  C:CD73H         LINE#         238
  C:CD73H         LINE#         239
  C:CD7EH         LINE#         240
  C:CD87H         LINE#         241
  C:CD98H         LINE#         242
  C:CD98H         LINE#         243
  C:CDCBH         LINE#         244
  C:CDD5H         LINE#         245
  C:CDDCH         LINE#         246
  C:CDECH         LINE#         247
  C:CDFCH         LINE#         248
  C:CDFFH         LINE#         249
  C:CDFFH         LINE#         250
  C:CE49H         LINE#         251
  C:CE50H         LINE#         252
  C:CE59H         LINE#         253
  C:CE5EH         LINE#         254
  -------         ENDPROC       _SCREEROLLUP
  -------         PROC          _SCREEROLLDOWN
  X:0FE6H         SYMBOL        buf2
  X:0FE9H         SYMBOL        num
  -------         DO            
  D:0025H         SYMBOL        n
  D:0026H         SYMBOL        i
  D:0027H         SYMBOL        j
  D:0029H         SYMBOL        num1
  D:002BH         SYMBOL        num2
  -------         ENDDO         
  C:C67CH         LINE#         261
  C:C68AH         LINE#         262
  C:C68AH         LINE#         265
  C:C69BH         LINE#         266
  C:C69BH         LINE#         267
  C:C69EH         LINE#         268
  C:C69EH         LINE#         269
  C:C6B6H         LINE#         270
  C:C6BFH         LINE#         271
  C:C6D0H         LINE#         272
  C:C70DH         LINE#         273
  C:C715H         LINE#         274
  C:C734H         LINE#         275
  C:C744H         LINE#         276
  C:C747H         LINE#         277
  C:C798H         LINE#         278
  C:C7A1H         LINE#         279
  C:C7A6H         LINE#         280
  -------         ENDPROC       _SCREEROLLDOWN
  -------         PROC          _SCREENONOFF
  D:0007H         SYMBOL        k
  C:F424H         LINE#         287
  C:F424H         LINE#         288
  C:F424H         LINE#         289
  C:F427H         LINE#         290
  C:F42AH         LINE#         292
  C:F42DH         LINE#         293
  -------         ENDPROC       _SCREENONOFF
  -------         PROC          _SCREENSETBRIGHTNESS
BL51 BANKED LINKER/LOCATER V6.22                                                      08/26/2021  06:15:46  PAGE 76


  D:0007H         SYMBOL        screen_brightness
  C:F3E7H         LINE#         299
  C:F3E7H         LINE#         300
  C:F3E7H         LINE#         301
  C:F3EDH         LINE#         302
  C:F3EFH         LINE#         303
  -------         ENDPROC       _SCREENSETBRIGHTNESS
  -------         PROC          _SCREENSETDIRECTION
  D:0007H         SYMBOL        k
  C:F191H         LINE#         312
  C:F191H         LINE#         313
  C:F191H         LINE#         314
  C:F194H         LINE#         315
  C:F194H         LINE#         316
  C:F199H         LINE#         317
  C:F19BH         LINE#         318
  C:F19DH         LINE#         320
  C:F19DH         LINE#         321
  C:F1A2H         LINE#         322
  C:F1A7H         LINE#         323
  C:F1A7H         LINE#         324
  -------         ENDPROC       _SCREENSETDIRECTION
  -------         PROC          _SCREENSETINVERSE
  D:0007H         SYMBOL        k
  C:F4AFH         LINE#         332
  C:F4AFH         LINE#         333
  C:F4AFH         LINE#         334
  -------         ENDPROC       _SCREENSETINVERSE
  -------         PROC          _DISPLAYTIME
  D:0007H         SYMBOL        hour
  D:0005H         SYMBOL        min
  D:0003H         SYMBOL        sec
  -------         DO            
  X:0FE6H         SYMBOL        n
  X:0FE7H         SYMBOL        i
  D:0003H         SYMBOL        j
  D:0001H         SYMBOL        num3
  X:0FE8H         SYMBOL        k
  X:0FEAH         SYMBOL        num1
  X:0FECH         SYMBOL        num2
  X:0FEEH         SYMBOL        temp
  X:0FF0H         SYMBOL        buf
  X:0000H         SYMBOL        last_buf
  -------         ENDDO         
  C:AE25H         LINE#         343
  C:AE25H         LINE#         344
  C:AE25H         LINE#         351
  C:AE2EH         LINE#         352
  C:AE37H         LINE#         353
  C:AE3BH         LINE#         354
  C:AE42H         LINE#         355
  C:AE4BH         LINE#         356
  C:AE4FH         LINE#         357
  C:AE56H         LINE#         358
  C:AE5FH         LINE#         359
  C:AE74H         LINE#         360
  C:AE74H         LINE#         361
BL51 BANKED LINKER/LOCATER V6.22                                                      08/26/2021  06:15:46  PAGE 77


  C:AE96H         LINE#         362
  C:AE96H         LINE#         364
  C:AE9BH         LINE#         365
  C:AE9BH         LINE#         366
  C:AE9DH         LINE#         367
  C:AE9DH         LINE#         368
  C:AED4H         LINE#         369
  C:AEE6H         LINE#         370
  C:AF04H         LINE#         371
  C:AF04H         LINE#         372
  C:AF26H         LINE#         373
  C:AF40H         LINE#         374
  C:AF50H         LINE#         375
  C:AF59H         LINE#         376
  C:AF90H         LINE#         377
  C:AFA8H         LINE#         378
  C:AFB1H         LINE#         379
  C:AFB8H         LINE#         380
  C:AFB8H         LINE#         381
  C:B02FH         LINE#         382
  C:B04CH         LINE#         383
  C:B055H         LINE#         384
  C:B064H         LINE#         385
  C:B064H         LINE#         386
  C:B085H         LINE#         387
  C:B08EH         LINE#         388
  -------         ENDPROC       _DISPLAYTIME
  -------         PROC          _SHOWSTRING
  X:0FEAH         SYMBOL        x
  X:0FEBH         SYMBOL        y
  X:0FECH         SYMBOL        str
  X:0FEFH         SYMBOL        cache_buf
  X:0FF2H         SYMBOL        front_size
  X:0FF3H         SYMBOL        inverse
  X:0FF4H         SYMBOL        do_refresh
  -------         DO            
  D:0025H         SYMBOL        temp
  D:0026H         SYMBOL        str_len
  D:0027H         SYMBOL        n
  D:0028H         SYMBOL        i
  D:0029H         SYMBOL        j
  D:002AH         SYMBOL        line
  D:002BH         SYMBOL        num1
  D:002DH         SYMBOL        num2
  -------         ENDDO         
  C:A86FH         LINE#         404
  C:A880H         LINE#         405
  C:A880H         LINE#         406
  C:A883H         LINE#         407
  C:A885H         LINE#         411
  C:A88CH         LINE#         412
  C:A88FH         LINE#         413
  C:A8A5H         LINE#         414
  C:A8A5H         LINE#         415
  C:A8A7H         LINE#         416
  C:A8A9H         LINE#         417
  C:A8B4H         LINE#         418
BL51 BANKED LINKER/LOCATER V6.22                                                      08/26/2021  06:15:46  PAGE 78


  C:A8B4H         LINE#         419
  C:A8C0H         LINE#         420
  C:A8C0H         LINE#         421
  C:A8CFH         LINE#         422
  C:A8D7H         LINE#         423
  C:A8D7H         LINE#         424
  C:A8DAH         LINE#         425
  C:A8DAH         LINE#         426
  C:A8FEH         LINE#         427
  C:A909H         LINE#         428
  C:A90CH         LINE#         429
  C:A964H         LINE#         430
  C:A96FH         LINE#         431
  C:A981H         LINE#         432
  C:A981H         LINE#         433
  C:A986H         LINE#         434
  C:A989H         LINE#         435
  C:A989H         LINE#         436
  C:A98CH         LINE#         438
  C:A98CH         LINE#         439
  C:A98FH         LINE#         440
  C:A98FH         LINE#         441
  C:A9BEH         LINE#         442
  C:A9C9H         LINE#         443
  C:A9CCH         LINE#         444
  C:AA2BH         LINE#         445
  C:AA36H         LINE#         446
  C:AA36H         LINE#         447
  C:AA3BH         LINE#         448
  C:AA3BH         LINE#         450
  C:AA3BH         LINE#         451
  C:AA48H         LINE#         452
  C:AA48H         LINE#         453
  C:AA56H         LINE#         454
  C:AA5EH         LINE#         455
  C:AA5EH         LINE#         456
  C:AA7AH         LINE#         457
  C:AA7DH         LINE#         458
  C:AACDH         LINE#         459
  C:AAE3H         LINE#         460
  C:AAE3H         LINE#         461
  C:AAE8H         LINE#         462
  C:AAEBH         LINE#         463
  C:AAEBH         LINE#         464
  C:AAEEH         LINE#         466
  C:AAEEH         LINE#         467
  C:AB16H         LINE#         468
  C:AB19H         LINE#         469
  C:AB70H         LINE#         470
  C:AB70H         LINE#         471
  C:AB75H         LINE#         472
  C:AB75H         LINE#         473
  C:AB7BH         LINE#         474
  C:AB89H         LINE#         475
  C:AB90H         LINE#         476
  C:AB9AH         LINE#         478
  C:ABA2H         LINE#         479
BL51 BANKED LINKER/LOCATER V6.22                                                      08/26/2021  06:15:46  PAGE 79


  -------         ENDPROC       _SHOWSTRING
  C:E6B1H         SYMBOL        L?0263
  -------         PROC          L?0262
  -------         ENDPROC       L?0262
  C:E6B1H         SYMBOL        L?0263
  -------         PROC          _DRAWDOT
  D:0007H         SYMBOL        x
  D:0005H         SYMBOL        y
  C:E6C6H         LINE#         480
  C:E6C6H         LINE#         481
  C:E6C6H         LINE#         482
  C:E6FFH         LINE#         483
  -------         ENDPROC       _DRAWDOT
  -------         PROC          _DRAWLINE
  X:0FFBH         SYMBOL        x1
  X:0FFCH         SYMBOL        y1
  X:0FFDH         SYMBOL        x2
  X:0FFEH         SYMBOL        y2
  -------         DO            
  X:0FFFH         SYMBOL        k
  X:1003H         SYMBOL        b
  -------         ENDDO         
  C:ABA3H         LINE#         484
  C:ABB2H         LINE#         485
  C:ABB2H         LINE#         488
  C:ABB8H         LINE#         489
  C:ABB8H         LINE#         490
  C:AC1BH         LINE#         491
  C:AC57H         LINE#         492
  C:AC93H         LINE#         493
  C:AC93H         LINE#         494
  C:ACA0H         LINE#         495
  C:ACA0H         LINE#         496
  C:ACB0H         LINE#         497
  C:ACEDH         LINE#         498
  C:ACEDH         LINE#         500
  C:ACEDH         LINE#         501
  C:ACFDH         LINE#         502
  C:AD3AH         LINE#         503
  C:AD3AH         LINE#         504
  C:AD3AH         LINE#         506
  C:AD3AH         LINE#         507
  C:AD47H         LINE#         508
  C:AD47H         LINE#         509
  C:AD58H         LINE#         510
  C:AD91H         LINE#         511
  C:AD91H         LINE#         513
  C:AD91H         LINE#         514
  C:ADA2H         LINE#         515
  C:ADDBH         LINE#         516
  C:ADDBH         LINE#         517
  C:ADDBH         LINE#         518
  C:ADDBH         LINE#         520
  C:ADDBH         LINE#         521
  C:ADE8H         LINE#         522
  C:ADE8H         LINE#         523
  C:ADF6H         LINE#         524
BL51 BANKED LINKER/LOCATER V6.22                                                      08/26/2021  06:15:46  PAGE 80


  C:AE06H         LINE#         525
  C:AE06H         LINE#         527
  C:AE06H         LINE#         528
  C:AE14H         LINE#         529
  C:AE24H         LINE#         530
  C:AE24H         LINE#         531
  C:AE24H         LINE#         532
  -------         ENDPROC       _DRAWLINE
  -------         PROC          _DRAWARM
  X:0FE6H         SYMBOL        x
  X:0FE7H         SYMBOL        y
  X:0FE8H         SYMBOL        radius
  X:0FE9H         SYMBOL        angle
  -------         DO            
  X:0FEBH         SYMBOL        k
  X:0FEFH         SYMBOL        rad
  X:0FF3H         SYMBOL        x0
  X:0FF7H         SYMBOL        y0
  -------         ENDDO         
  C:B521H         LINE#         553
  C:B52CH         LINE#         554
  C:B52CH         LINE#         556
  C:B547H         LINE#         557
  C:B55EH         LINE#         558
  C:B591H         LINE#         559
  C:B5CAH         LINE#         560
  C:B5E5H         LINE#         561
  C:B620H         LINE#         562
  C:B650H         LINE#         563
  C:B676H         LINE#         565
  C:B6A8H         LINE#         566
  C:B6CDH         LINE#         567
  -------         ENDPROC       _DRAWARM
  -------         PROC          _DRAWSELECTIONFRAME
  D:0004H         SYMBOL        x
  D:0003H         SYMBOL        y
  C:B71FH         LINE#         569
  C:B723H         LINE#         570
  C:B723H         LINE#         571
  C:B723H         LINE#         572
  C:B723H         LINE#         573
  C:B723H         LINE#         574
  C:B723H         LINE#         575
  C:B726H         LINE#         576
  C:B72FH         LINE#         577
  C:B739H         LINE#         578
  C:B743H         LINE#         579
  C:B74DH         LINE#         580
  C:B755H         LINE#         581
  C:B75EH         LINE#         582
  C:B767H         LINE#         583
  C:B770H         LINE#         584
  C:B779H         LINE#         585
  C:B783H         LINE#         586
  C:B78DH         LINE#         587
  C:B797H         LINE#         589
  C:B79BH         LINE#         590
BL51 BANKED LINKER/LOCATER V6.22                                                      08/26/2021  06:15:46  PAGE 81


  C:B7A1H         LINE#         591
  C:B7A7H         LINE#         592
  C:B7AEH         LINE#         593
  C:B7B5H         LINE#         594
  C:B7BCH         LINE#         595
  C:B7C5H         LINE#         596
  C:B7CFH         LINE#         597
  C:B7D9H         LINE#         598
  C:B7E3H         LINE#         599
  C:B7EBH         LINE#         600
  C:B7F4H         LINE#         601
  C:B7FDH         LINE#         602
  C:B806H         LINE#         603
  C:B80FH         LINE#         604
  C:B819H         LINE#         605
  C:B823H         LINE#         606
  C:B82DH         LINE#         608
  C:B831H         LINE#         609
  C:B837H         LINE#         610
  C:B83DH         LINE#         611
  C:B844H         LINE#         612
  C:B84BH         LINE#         613
  C:B852H         LINE#         614
  C:B85BH         LINE#         615
  C:B862H         LINE#         616
  C:B869H         LINE#         617
  C:B870H         LINE#         618
  C:B875H         LINE#         619
  C:B87EH         LINE#         620
  C:B887H         LINE#         621
  C:B890H         LINE#         622
  C:B899H         LINE#         623
  C:B8A3H         LINE#         624
  C:B8ADH         LINE#         625
  C:B8B7H         LINE#         627
  C:B8BBH         LINE#         628
  C:B8BEH         LINE#         629
  C:B8BEH         LINE#         630
  C:B8BEH         LINE#         631
  C:B8BEH         LINE#         632
  C:B8C1H         LINE#         633
  C:B8C7H         LINE#         634
  C:B8C7H         LINE#         635
  C:B8C7H         LINE#         636
  C:B8CAH         LINE#         637
  C:B8CFH         LINE#         638
  C:B8D8H         LINE#         639
  C:B8E1H         LINE#         640
  C:B8EAH         LINE#         641
  C:B8F3H         LINE#         642
  C:B8FDH         LINE#         643
  C:B907H         LINE#         644
  -------         ENDPROC       _DRAWSELECTIONFRAME
  -------         ENDMOD        DISPLAY

  -------         MODULE        MAIN
  C:0000H         SYMBOL        _ICE_DUMMY_
BL51 BANKED LINKER/LOCATER V6.22                                                      08/26/2021  06:15:46  PAGE 82


  D:0080H         PUBLIC        P0
  D:0090H         PUBLIC        P1
  B:0020H.6       PUBLIC        action
  D:00A0H         PUBLIC        P2
  X:0EA2H         PUBLIC        battery_life
  D:00B0H         PUBLIC        P3
  D:00C0H         PUBLIC        P4
  D:00C8H         PUBLIC        P5
  D:00E8H         PUBLIC        P6
  D:00F8H         PUBLIC        P7
  X:0EA6H         PUBLIC        LSM6DSM
  B:0020H.7       PUBLIC        alarm_flag
  C:6097H         PUBLIC        ALARM_MODE_MENU
  X:0EBEH         PUBLIC        autowake_cnt
  D:00A8H         PUBLIC        IE
  X:0EC0H         PUBLIC        magnet_cal_data
  C:CC31H         PUBLIC        SensorInit
  X:0ED2H         PUBLIC        Cont
  B:0021H.0       PUBLIC        sleep_flag
  D:00B8H         PUBLIC        IP
  B:0021H.1       PUBLIC        tick_1ms
  C:4775H         PUBLIC        BLUETOOTH_SMALL_ICON
  C:6487H         PUBLIC        COMPASS_ICON
  D:00D8H         PUBLIC        CCON
  C:60E7H         PUBLIC        CELSIUS_ICON
  C:00A6H         PUBLIC        main
  B:0021H.2       PUBLIC        tick_8ms
  X:0ED3H         PUBLIC        func_index
  C:4795H         PUBLIC        BATTERY_LIFE_ICON
  C:F4B2H         PUBLIC        INT0_Isr
  C:E752H         PUBLIC        INT1_Isr
  C:EFEDH         PUBLIC        INT2_Isr
  X:0ED4H         PUBLIC        Trg
  X:0ED5H         PUBLIC        sleep_time
  C:F4B5H         PUBLIC        INT3_Isr
  B:0021H.3       PUBLIC        ON_OPEN
  C:EF84H         PUBLIC        KeyScan
  D:0098H         PUBLIC        SCON
  D:0088H         PUBLIC        TCON
  B:00A0H.3       PUBLIC        P23
  C:5FD7H         PUBLIC        SETTING_MENU
  C:47D7H         PUBLIC        FUNC_ICON
  B:00A0H.7       PUBLIC        P27
  B:00C8H.5       PUBLIC        P55
  C:6287H         PUBLIC        NESW
  B:0021H.4       PUBLIC        screen_on_flag
  C:5BD7H         PUBLIC        SUB_MENU_BMP
  C:6687H         SYMBOL        _?ix1000
  C:6691H         SYMBOL        _?ix1001
  C:6697H         SYMBOL        _?ix1002
  X:0ED7H         PUBLIC        timer_cnt
  D:008CH         PUBLIC        TH0
  B:0021H.5       PUBLIC        radio_on_flag
  C:6107H         PUBLIC        T_H_P_A
  D:008AH         PUBLIC        TL0
  B:0021H.6       PUBLIC        tick_20ms
  C:477DH         PUBLIC        CLOCK_SMALL_ICON
BL51 BANKED LINKER/LOCATER V6.22                                                      08/26/2021  06:15:46  PAGE 83


  B:0088H.4       PUBLIC        TR0
  C:4785H         PUBLIC        RADIO_SMALL_ICON
  B:0021H.7       PUBLIC        PCF8563_int_flag
  C:6077H         PUBLIC        CIRCLE16X16
  B:0022H.0       PUBLIC        timer_on_flag
  C:47ADH         PUBLIC        WEEKDAY_IN_STR
  B:0022H.1       PUBLIC        ON_RETURN
  X:0ED9H         PUBLIC        func_num
  C:F0DEH         PUBLIC        TM0_Isr
  C:CB12H         PUBLIC        TM3_Ist
  B:0022H.2       PUBLIC        powerdown_flag
  X:0EDAH         PUBLIC        RTC
  B:0022H.3       PUBLIC        deep_powerdown_flag
  C:478DH         PUBLIC        TIMER_SMALL_ICON
  X:0EE3H         PUBLIC        inactive_time
  D:00EFH         PUBLIC        AUXINTIF
  X:0EE5H         PUBLIC        BME280
  B:0022H.4       PUBLIC        ON_CLOSE
  X:0EF1H         PUBLIC        config
  D:00D0H         PUBLIC        PSW
  B:0022H.5       PUBLIC        active_flag
  -------         PROC          KEYSCAN
  -------         DO            
  D:0005H         SYMBOL        dat
  -------         ENDDO         
  C:EF84H         LINE#         117
  C:EF84H         LINE#         118
  C:EF84H         LINE#         119
  C:EF86H         LINE#         120
  C:EF89H         LINE#         121
  C:EF8AH         LINE#         122
  C:EF8DH         LINE#         123
  C:EF91H         LINE#         124
  C:EF94H         LINE#         125
  C:EF98H         LINE#         126
  C:EFA2H         LINE#         127
  C:EFA7H         LINE#         128
  -------         ENDPROC       KEYSCAN
  -------         PROC          TM3_IST
  -------         DO            
  X:0C08H         SYMBOL        t_count
  X:0C0AH         SYMBOL        t_key_press
  -------         ENDDO         
  C:CB12H         LINE#         130
  C:CB1FH         LINE#         135
  C:CB22H         LINE#         136
  C:CB2BH         LINE#         137
  C:CB2BH         LINE#         138
  C:CB34H         LINE#         139
  C:CB37H         LINE#         140
  C:CB37H         LINE#         141
  C:CB4AH         LINE#         142
  C:CB4AH         LINE#         143
  C:CB4DH         LINE#         144
  C:CB53H         LINE#         145
  C:CB53H         LINE#         146
  C:CB56H         LINE#         147
BL51 BANKED LINKER/LOCATER V6.22                                                      08/26/2021  06:15:46  PAGE 84


  C:CB58H         LINE#         149
  C:CB61H         LINE#         150
  C:CB61H         LINE#         151
  C:CB66H         LINE#         152
  C:CB69H         LINE#         153
  C:CB69H         LINE#         154
  C:CB6BH         LINE#         155
  C:CB6FH         LINE#         156
  C:CB6FH         LINE#         157
  C:CB6FH         LINE#         158
  C:CB6FH         LINE#         159
  C:CB76H         LINE#         160
  C:CB76H         LINE#         161
  C:CB8BH         LINE#         162
  C:CB90H         LINE#         163
  C:CB92H         LINE#         165
  C:CB99H         LINE#         166
  C:CB99H         LINE#         167
  C:CB9BH         LINE#         168
  C:CBA7H         LINE#         169
  C:CBA9H         LINE#         170
  C:CBB4H         LINE#         171
  C:CBB6H         LINE#         172
  C:CBCCH         LINE#         173
  C:CBCCH         LINE#         174
  C:CBD2H         LINE#         175
  C:CBD5H         LINE#         176
  C:CBD5H         LINE#         177
  C:CBF0H         LINE#         178
  C:CBF0H         LINE#         179
  C:CBF2H         LINE#         180
  C:CBF9H         LINE#         181
  C:CBFBH         LINE#         182
  C:CBFBH         LINE#         183
  C:CBFBH         LINE#         184
  C:CBFEH         LINE#         185
  C:CBFEH         LINE#         186
  C:CC19H         LINE#         187
  C:CC19H         LINE#         188
  C:CC1BH         LINE#         189
  C:CC22H         LINE#         190
  C:CC24H         LINE#         191
  C:CC26H         LINE#         192
  C:CC26H         LINE#         193
  C:CC26H         LINE#         194
  C:CC26H         LINE#         195
  -------         ENDPROC       TM3_IST
  -------         PROC          INT0_ISR
  C:F4B2H         LINE#         197
  C:F4B2H         LINE#         199
  C:F4B4H         LINE#         200
  -------         ENDPROC       INT0_ISR
  -------         PROC          TM0_ISR
  C:F0DEH         LINE#         201
  C:F0E4H         LINE#         203
  C:F0F2H         LINE#         204
  -------         ENDPROC       TM0_ISR
BL51 BANKED LINKER/LOCATER V6.22                                                      08/26/2021  06:15:46  PAGE 85


  -------         PROC          INT1_ISR
  C:E752H         LINE#         205
  C:E75FH         LINE#         207
  C:E761H         LINE#         208
  C:E763H         LINE#         209
  C:E766H         LINE#         210
  C:E76FH         LINE#         211
  C:E776H         LINE#         213
  C:E77CH         LINE#         214
  C:E786H         LINE#         215
  C:E786H         LINE#         216
  C:E788H         LINE#         217
  C:E78AH         LINE#         218
  C:E791H         LINE#         219
  C:E795H         LINE#         220
  C:E797H         LINE#         222
  C:E797H         LINE#         223
  -------         ENDPROC       INT1_ISR
  -------         PROC          INT2_ISR
  C:EFEDH         LINE#         224
  C:EFF3H         LINE#         226
  C:EFF5H         LINE#         227
  C:EFFBH         LINE#         228
  C:F002H         LINE#         230
  C:F008H         LINE#         231
  -------         ENDPROC       INT2_ISR
  -------         PROC          INT3_ISR
  C:F4B5H         LINE#         232
  C:F4B5H         LINE#         234
  C:F4B7H         LINE#         235
  -------         ENDPROC       INT3_ISR
  -------         PROC          SENSORINIT
  -------         DO            
  X:0FE6H         SYMBOL        y
  X:0FE7H         SYMBOL        time_out
  X:0FE9H         SYMBOL        error_count
  -------         ENDDO         
  C:CC31H         LINE#         236
  C:CC31H         LINE#         237
  C:CC31H         LINE#         238
  C:CC36H         LINE#         239
  C:CC3EH         LINE#         240
  C:CC41H         LINE#         241
  C:CC47H         LINE#         242
  C:CC47H         LINE#         243
  C:CC75H         LINE#         244
  C:CC7BH         LINE#         245
  C:CC7BH         LINE#         246
  C:CC81H         LINE#         247
  C:CC81H         LINE#         248
  C:CCAFH         LINE#         249
  C:CCB5H         LINE#         250
  C:CCB5H         LINE#         251
  C:CCBBH         LINE#         252
  C:CCBBH         LINE#         253
  C:CCE9H         LINE#         254
  C:CCEFH         LINE#         255
BL51 BANKED LINKER/LOCATER V6.22                                                      08/26/2021  06:15:46  PAGE 86


  C:CCEFH         LINE#         256
  C:CCF5H         LINE#         257
  C:CCF5H         LINE#         258
  C:CD23H         LINE#         259
  C:CD29H         LINE#         260
  C:CD29H         LINE#         261
  C:CD2FH         LINE#         262
  C:CD2FH         LINE#         263
  C:CD35H         LINE#         264
  C:CD35H         LINE#         265
  C:CD3BH         LINE#         266
  C:CD49H         LINE#         267
  C:CD4AH         LINE#         269
  C:CD4AH         LINE#         270
  -------         ENDPROC       SENSORINIT
  -------         PROC          MAIN
  -------         DO            
  C:04C8H         SYMBOL        case_AWT
  -------         DO            
  X:0F66H         SYMBOL        x
  X:0F67H         SYMBOL        n
  X:0F68H         SYMBOL        m
  X:0F69H         SYMBOL        str
  X:0F66H         SYMBOL        x
  X:0F67H         SYMBOL        y
  X:0F66H         SYMBOL        t
  X:0F67H         SYMBOL        t_x
  X:0F68H         SYMBOL        t_y
  X:0C0CH         SYMBOL        ms
  X:0C0EH         SYMBOL        sec
  X:0C10H         SYMBOL        min
  X:0C12H         SYMBOL        n
  X:0C13H         SYMBOL        x
  X:0C14H         SYMBOL        y
  X:0C15H         SYMBOL        str1
  X:0F69H         SYMBOL        str2
  X:0F66H         SYMBOL        n
  X:0F67H         SYMBOL        step
  X:0F69H         SYMBOL        buf
  X:0F66H         SYMBOL        altitude
  X:0F6AH         SYMBOL        str1
  X:0C83H         SYMBOL        index
  B:0020H.0       SYMBOL        searching_flag
  X:0C84H         SYMBOL        search_direction
  X:0F66H         SYMBOL        temp
  X:0F6AH         SYMBOL        str2
  -------         ENDDO         
  -------         DO            
  X:0F66H         SYMBOL        x
  X:0F67H         SYMBOL        y
  X:0F66H         SYMBOL        t
  X:0F67H         SYMBOL        t_x
  X:0F68H         SYMBOL        t_y
  X:0C0CH         SYMBOL        ms
  X:0C0EH         SYMBOL        sec
  X:0C10H         SYMBOL        min
  X:0C12H         SYMBOL        n
BL51 BANKED LINKER/LOCATER V6.22                                                      08/26/2021  06:15:46  PAGE 87


  X:0C13H         SYMBOL        x
  X:0C14H         SYMBOL        y
  X:0C15H         SYMBOL        str1
  X:0F69H         SYMBOL        str2
  X:0F66H         SYMBOL        n
  X:0F67H         SYMBOL        step
  X:0F69H         SYMBOL        buf
  X:0F66H         SYMBOL        altitude
  X:0F6AH         SYMBOL        str1
  X:0C83H         SYMBOL        index
  B:0020H.0       SYMBOL        searching_flag
  X:0C84H         SYMBOL        search_direction
  X:0F66H         SYMBOL        temp
  X:0F6AH         SYMBOL        str2
  -------         ENDDO         
  -------         DO            
  X:0F66H         SYMBOL        t
  X:0F67H         SYMBOL        t_x
  X:0F68H         SYMBOL        t_y
  X:0C0CH         SYMBOL        ms
  X:0C0EH         SYMBOL        sec
  X:0C10H         SYMBOL        min
  X:0C12H         SYMBOL        n
  X:0C13H         SYMBOL        x
  X:0C14H         SYMBOL        y
  X:0C15H         SYMBOL        str1
  X:0F69H         SYMBOL        str2
  X:0F66H         SYMBOL        n
  X:0F67H         SYMBOL        step
  X:0F69H         SYMBOL        buf
  X:0F66H         SYMBOL        altitude
  X:0F6AH         SYMBOL        str1
  X:0C83H         SYMBOL        index
  B:0020H.0       SYMBOL        searching_flag
  X:0C84H         SYMBOL        search_direction
  X:0F66H         SYMBOL        temp
  X:0F6AH         SYMBOL        str2
  -------         ENDDO         
  -------         DO            
  X:0F66H         SYMBOL        n
  X:0F67H         SYMBOL        step
  X:0F69H         SYMBOL        buf
  X:0F66H         SYMBOL        altitude
  X:0F6AH         SYMBOL        str1
  X:0C83H         SYMBOL        index
  B:0020H.0       SYMBOL        searching_flag
  X:0C84H         SYMBOL        search_direction
  X:0F66H         SYMBOL        temp
  X:0F6AH         SYMBOL        str2
  -------         ENDDO         
  -------         DO            
  X:0F66H         SYMBOL        altitude
  X:0F6AH         SYMBOL        str1
  X:0C83H         SYMBOL        index
  B:0020H.0       SYMBOL        searching_flag
  X:0C84H         SYMBOL        search_direction
  X:0F66H         SYMBOL        temp
BL51 BANKED LINKER/LOCATER V6.22                                                      08/26/2021  06:15:46  PAGE 88


  X:0F6AH         SYMBOL        str2
  -------         ENDDO         
  -------         DO            
  X:0C83H         SYMBOL        index
  B:0020H.0       SYMBOL        searching_flag
  X:0C84H         SYMBOL        search_direction
  X:0F66H         SYMBOL        temp
  X:0F6AH         SYMBOL        str2
  -------         ENDDO         
  -------         DO            
  X:0C87H         SYMBOL        mode
  X:0F66H         SYMBOL        magnet_data
  X:0F6CH         SYMBOL        str3
  X:0F66H         SYMBOL        bluetooth_data
  B:0020H.1       SYMBOL        bluetooth_init
  X:0C88H         SYMBOL        y
  X:0C89H         SYMBOL        connected
  X:0F66H         SYMBOL        x
  X:0F68H         SYMBOL        y
  X:0F6AH         SYMBOL        str
  X:0C8AH         SYMBOL        flash_mode
  X:0C8BH         SYMBOL        flash_t_cnt
  B:0020H.2       SYMBOL        k
  -------         DO            
  X:0F7CH         SYMBOL        n
  X:0F7DH         SYMBOL        angle_from_north
  X:0C85H         SYMBOL        data_cnt
  -------         ENDDO         
  -------         DO            
  X:0C85H         SYMBOL        data_cnt
  -------         ENDDO         
  -------         ENDDO         
  -------         DO            
  X:0F66H         SYMBOL        bluetooth_data
  B:0020H.1       SYMBOL        bluetooth_init
  X:0C88H         SYMBOL        y
  X:0C89H         SYMBOL        connected
  X:0F66H         SYMBOL        x
  X:0F68H         SYMBOL        y
  X:0F6AH         SYMBOL        str
  X:0C8AH         SYMBOL        flash_mode
  X:0C8BH         SYMBOL        flash_t_cnt
  B:0020H.2       SYMBOL        k
  -------         ENDDO         
  -------         DO            
  X:0F66H         SYMBOL        x
  X:0F68H         SYMBOL        y
  X:0F6AH         SYMBOL        str
  X:0C8AH         SYMBOL        flash_mode
  X:0C8BH         SYMBOL        flash_t_cnt
  B:0020H.2       SYMBOL        k
  -------         ENDDO         
  -------         DO            
  X:0C8AH         SYMBOL        flash_mode
  X:0C8BH         SYMBOL        flash_t_cnt
  B:0020H.2       SYMBOL        k
  -------         ENDDO         
BL51 BANKED LINKER/LOCATER V6.22                                                      08/26/2021  06:15:46  PAGE 89


  -------         DO            
  X:0C95H         SYMBOL        index
  X:0C96H         SYMBOL        pointer
  X:0C97H         SYMBOL        mode
  X:0F66H         SYMBOL        str
  X:0F7BH         SYMBOL        cache
  -------         DO            
  X:0C8CH         SYMBOL        pointer
  X:0C8DH         SYMBOL        set_index
  X:0C8EH         SYMBOL        pointer
  X:0C8FH         SYMBOL        set_index
  X:0C90H         SYMBOL        temp
  X:0C91H         SYMBOL        temp
  X:0C93H         SYMBOL        temp
  -------         ENDDO         
  -------         DO            
  X:0C8EH         SYMBOL        pointer
  X:0C8FH         SYMBOL        set_index
  X:0C90H         SYMBOL        temp
  X:0C91H         SYMBOL        temp
  X:0C93H         SYMBOL        temp
  -------         ENDDO         
  -------         DO            
  X:0C90H         SYMBOL        temp
  X:0C91H         SYMBOL        temp
  X:0C93H         SYMBOL        temp
  -------         ENDDO         
  -------         DO            
  X:0C91H         SYMBOL        temp
  X:0C93H         SYMBOL        temp
  -------         ENDDO         
  -------         DO            
  X:0C93H         SYMBOL        temp
  -------         ENDDO         
  -------         ENDDO         
  -------         DO            
  X:0F66H         SYMBOL        i
  X:0F67H         SYMBOL        str
  X:0C99H         SYMBOL        snake_direction
  X:0C9AH         SYMBOL        snake_speed
  X:0C9BH         SYMBOL        past_x
  X:0D9BH         SYMBOL        past_y
  X:0E9BH         SYMBOL        snake_head_x
  X:0E9CH         SYMBOL        snake_head_y
  X:0E9DH         SYMBOL        snake_len
  X:0E9EH         SYMBOL        test_now
  X:0E9FH         SYMBOL        delicious_x
  X:0EA0H         SYMBOL        delicious_y
  X:0EA1H         SYMBOL        best_score
  B:0020H.3       SYMBOL        game_loop
  B:0020H.4       SYMBOL        game_over
  B:0020H.5       SYMBOL        game_pause
  -------         DO            
  X:0C98H         SYMBOL        t_cnt
  -------         ENDDO         
  -------         ENDDO         
  -------         DO            
BL51 BANKED LINKER/LOCATER V6.22                                                      08/26/2021  06:15:46  PAGE 90


  X:0F66H         SYMBOL        pcf8563_int_src
  -------         DO            
  X:0F67H         SYMBOL        i
  X:0F68H         SYMBOL        j
  -------         ENDDO         
  -------         ENDDO         
  -------         ENDDO         
  C:00A6H         LINE#         272
  C:00A6H         LINE#         273
  C:00A6H         LINE#         274
  C:00A9H         LINE#         275
  C:00B2H         LINE#         276
  C:00B5H         LINE#         277
  C:00B8H         LINE#         278
  C:00C1H         LINE#         279
  C:00C1H         LINE#         280
  C:00C1H         LINE#         281
  C:00C4H         LINE#         282
  C:00CFH         LINE#         283
  C:00CFH         LINE#         286
  C:00D2H         LINE#         287
  C:00D2H         LINE#         288
  C:00D4H         LINE#         289
  C:00DAH         LINE#         290
  C:00E4H         LINE#         291
  C:00EBH         LINE#         292
  C:00F6H         LINE#         293
  C:00FCH         LINE#         294
  C:00FCH         LINE#         295
  C:00FFH         LINE#         296
  C:00FFH         LINE#         297
  C:0101H         LINE#         298
  C:0101H         LINE#         299
  C:0107H         LINE#         300
  C:0107H         LINE#         301
  C:0109H         LINE#         303
  C:0112H         LINE#         305
  C:0124H         LINE#         307
  C:013EH         LINE#         308
  C:0143H         LINE#         309
  C:016BH         LINE#         310
  C:0172H         LINE#         311
  C:0175H         LINE#         312
  C:0175H         LINE#         313
  C:019EH         LINE#         314
  C:01A5H         LINE#         315
  C:01A5H         LINE#         316
  C:01ABH         LINE#         317
  C:01ABH         LINE#         318
  C:01D7H         LINE#         319
  C:01DEH         LINE#         320
  C:01DEH         LINE#         321
  C:01E1H         LINE#         322
  C:020DH         LINE#         325
  C:0228H         LINE#         326
  C:0268H         LINE#         327
  C:028DH         LINE#         328
BL51 BANKED LINKER/LOCATER V6.22                                                      08/26/2021  06:15:46  PAGE 91


  C:02B1H         LINE#         339
  C:02B1H         LINE#         340
  C:02B1H         LINE#         341
  C:02B8H         LINE#         342
  C:02B8H         LINE#         343
  C:02C7H         LINE#         344
  C:02C7H         LINE#         345
  C:02C7H         LINE#         346
  C:02C7H         LINE#         347
  C:02CCH         LINE#         348
  C:02CCH         LINE#         349
  C:02CEH         LINE#         350
  C:02CEH         LINE#         351
  C:02CEH         LINE#         352
  C:02CEH         LINE#         353
  C:02D3H         LINE#         354
  C:02D8H         LINE#         355
  C:02D8H         LINE#         356
  C:02DAH         LINE#         357
  C:02DAH         LINE#         358
  C:02DAH         LINE#         359
  C:02DAH         LINE#         360
  C:02E0H         LINE#         361
  C:02E6H         LINE#         362
  C:02E8H         LINE#         363
  C:02EAH         LINE#         364
  C:02EAH         LINE#         365
  C:02EAH         LINE#         366
  C:02EAH         LINE#         367
  C:02ECH         LINE#         368
  C:02EEH         LINE#         369
  C:02F0H         LINE#         370
  C:02F7H         LINE#         371
  C:02FDH         LINE#         372
  C:02FFH         LINE#         373
  C:0301H         LINE#         374
  C:0301H         LINE#         375
  C:0301H         LINE#         376
  C:0301H         LINE#         377
  C:0306H         LINE#         379
  C:0306H         LINE#         380
  C:0309H         LINE#         381
  C:0309H         LINE#         383
  C:030BH         LINE#         384
  C:030EH         LINE#         385
  C:0310H         LINE#         386
  C:0313H         LINE#         387
  C:031EH         LINE#         388
  C:031EH         LINE#         389
  C:0321H         LINE#         390
  C:0321H         LINE#         391
  C:032AH         LINE#         392
  C:0366H         LINE#         393
  C:0372H         LINE#         394
  C:0375H         LINE#         396
  C:037AH         LINE#         397
  C:037CH         LINE#         398
BL51 BANKED LINKER/LOCATER V6.22                                                      08/26/2021  06:15:46  PAGE 92


  C:037CH         LINE#         399
  C:037FH         LINE#         400
  C:037FH         LINE#         401
  C:0381H         LINE#         402
  C:038AH         LINE#         403
  C:03C6H         LINE#         404
  C:03D1H         LINE#         405
  C:03D1H         LINE#         407
  C:03DBH         LINE#         408
  C:03DBH         LINE#         409
  C:03F9H         LINE#         410
  C:03F9H         LINE#         411
  C:03F9H         LINE#         412
  C:03F9H         LINE#         413
  C:03F9H         LINE#         414
  C:03F9H         LINE#         415
  C:03F9H         LINE#         416
  C:03F9H         LINE#         417
  C:03F9H         LINE#         418
  C:0406H         LINE#         419
  C:0406H         LINE#         420
  C:0408H         LINE#         421
  C:0408H         LINE#         422
  C:0408H         LINE#         423
  C:040AH         LINE#         425
  C:040AH         LINE#         426
  C:0413H         LINE#         427
  C:044FH         LINE#         428
  C:0457H         LINE#         429
  C:0457H         LINE#         430
  C:0459H         LINE#         431
  C:0459H         LINE#         432
  C:0459H         LINE#         433
  C:0459H         LINE#         434
  C:0466H         LINE#         435
  C:0466H         LINE#         436
  C:0468H         LINE#         437
  C:0468H         LINE#         438
  C:0468H         LINE#         439
  C:046BH         LINE#         441
  C:046BH         LINE#         442
  C:0474H         LINE#         443
  C:04B0H         LINE#         444
  C:04BBH         LINE#         445
  C:04BBH         LINE#         446
  C:04BEH         LINE#         447
  C:04BEH         LINE#         448
  C:04BEH         LINE#         449
  C:04BEH         LINE#         450
  C:04C5H         LINE#         451
  C:04C5H         LINE#         452
  C:04C8H         LINE#         453
  C:04C8H         LINE#         454
  C:04C8H         LINE#         455
  C:04C8H         LINE#         456
  C:04C8H         LINE#         457
  C:04DBH         LINE#         458
BL51 BANKED LINKER/LOCATER V6.22                                                      08/26/2021  06:15:46  PAGE 93


  C:04DBH         LINE#         459
  C:04E9H         LINE#         460
  C:04E9H         LINE#         461
  C:04ECH         LINE#         462
  C:0528H         LINE#         463
  C:0533H         LINE#         464
  C:0535H         LINE#         465
  C:0535H         LINE#         467
  C:0535H         LINE#         468
  C:0540H         LINE#         469
  C:0540H         LINE#         470
  C:0543H         LINE#         471
  C:057FH         LINE#         472
  C:058AH         LINE#         473
  C:058CH         LINE#         474
  C:058CH         LINE#         475
  C:0592H         LINE#         476
  C:0594H         LINE#         477
  C:0594H         LINE#         478
  C:0594H         LINE#         479
  C:0594H         LINE#         480
  C:0599H         LINE#         481
  C:0599H         LINE#         482
  C:059FH         LINE#         483
  C:059FH         LINE#         484
  C:05A1H         LINE#         485
  C:05A3H         LINE#         486
  C:05A3H         LINE#         487
  C:05A6H         LINE#         489
  C:05B0H         LINE#         490
  C:05B0H         LINE#         492
  C:05B3H         LINE#         493
  C:05B3H         LINE#         494
  C:05B5H         LINE#         495
  C:05BEH         LINE#         496
  C:05E6H         LINE#         497
  C:05F1H         LINE#         499
  C:05F8H         LINE#         500
  C:05FFH         LINE#         501
  C:05FFH         LINE#         502
  C:0602H         LINE#         503
  C:0602H         LINE#         504
  C:0604H         LINE#         505
  C:060DH         LINE#         506
  C:0616H         LINE#         507
  C:0616H         LINE#         508
  C:061CH         LINE#         509
  C:061CH         LINE#         510
  C:061EH         LINE#         511
  C:0643H         LINE#         512
  C:0668H         LINE#         513
  C:0686H         LINE#         514
  C:06A4H         LINE#         515
  C:06C1H         LINE#         516
  C:06DDH         LINE#         517
  C:06E9H         LINE#         518
  C:0703H         LINE#         519
BL51 BANKED LINKER/LOCATER V6.22                                                      08/26/2021  06:15:46  PAGE 94


  C:070DH         LINE#         520
  C:0729H         LINE#         521
  C:0735H         LINE#         522
  C:074FH         LINE#         523
  C:0759H         LINE#         524
  C:0779H         LINE#         525
  C:0798H         LINE#         526
  C:07A3H         LINE#         527
  C:07A6H         LINE#         528
  C:07B1H         LINE#         529
  C:07B4H         LINE#         530
  C:07BDH         LINE#         531
  C:07E5H         LINE#         532
  C:07F0H         LINE#         533
  C:07F9H         LINE#         534
  C:07F9H         LINE#         535
  C:07FFH         LINE#         536
  C:07FFH         LINE#         537
  C:0839H         LINE#         538
  C:083DH         LINE#         539
  C:083FH         LINE#         540
  C:083FH         LINE#         541
  C:0845H         LINE#         542
  C:0845H         LINE#         543
  C:0847H         LINE#         545
  C:084EH         LINE#         546
  C:0855H         LINE#         547
  C:0857H         LINE#         548
  C:0857H         LINE#         549
  C:085AH         LINE#         551
  C:0863H         LINE#         552
  C:0863H         LINE#         553
  C:086DH         LINE#         558
  C:0873H         LINE#         559
  C:0873H         LINE#         560
  C:0875H         LINE#         561
  C:087EH         LINE#         562
  C:08C9H         LINE#         563
  C:08E7H         LINE#         564
  C:08F4H         LINE#         565
  C:093FH         LINE#         566
  C:0962H         LINE#         567
  C:0968H         LINE#         568
  C:0968H         LINE#         569
  C:097BH         LINE#         570
  C:097BH         LINE#         571
  C:097FH         LINE#         572
  C:097FH         LINE#         573
  C:0983H         LINE#         574
  C:0987H         LINE#         575
  C:0987H         LINE#         576
  C:09BEH         LINE#         577
  C:09C6H         LINE#         578
  C:09C6H         LINE#         579
  C:09D1H         LINE#         580
  C:09DAH         LINE#         581
  C:09DAH         LINE#         582
BL51 BANKED LINKER/LOCATER V6.22                                                      08/26/2021  06:15:46  PAGE 95


  C:09E0H         LINE#         583
  C:09E0H         LINE#         584
  C:09E2H         LINE#         585
  C:0A2DH         LINE#         586
  C:0A42H         LINE#         587
  C:0A4FH         LINE#         588
  C:0A9AH         LINE#         589
  C:0ABEH         LINE#         590
  C:0AC5H         LINE#         591
  C:0AC5H         LINE#         592
  C:0ACFH         LINE#         593
  C:0ACFH         LINE#         594
  C:0AE2H         LINE#         595
  C:0AE2H         LINE#         596
  C:0AE2H         LINE#         597
  C:0AE2H         LINE#         598
  C:0AE4H         LINE#         599
  C:0AE7H         LINE#         600
  C:0AE7H         LINE#         601
  C:0AE7H         LINE#         602
  C:0AE7H         LINE#         603
  C:0AEAH         LINE#         604
  C:0AEAH         LINE#         605
  C:0AECH         LINE#         606
  C:0AF3H         LINE#         607
  C:0AF5H         LINE#         608
  C:0AF8H         LINE#         610
  C:0AF8H         LINE#         611
  C:0AFFH         LINE#         612
  C:0B01H         LINE#         613
  C:0B03H         LINE#         614
  C:0B03H         LINE#         615
  C:0B06H         LINE#         616
  C:0B06H         LINE#         617
  C:0B06H         LINE#         618
  C:0B06H         LINE#         619
  C:0B0DH         LINE#         620
  C:0B0FH         LINE#         621
  C:0B11H         LINE#         622
  C:0B17H         LINE#         623
  C:0B1BH         LINE#         624
  C:0B1FH         LINE#         625
  C:0B21H         LINE#         626
  C:0B23H         LINE#         627
  C:0B27H         LINE#         628
  C:0B30H         LINE#         629
  C:0B33H         LINE#         630
  C:0B33H         LINE#         631
  C:0B33H         LINE#         632
  C:0B33H         LINE#         633
  C:0B46H         LINE#         634
  C:0B46H         LINE#         635
  C:0B4AH         LINE#         636
  C:0B4AH         LINE#         637
  C:0B4EH         LINE#         638
  C:0B52H         LINE#         639
  C:0B52H         LINE#         640
BL51 BANKED LINKER/LOCATER V6.22                                                      08/26/2021  06:15:46  PAGE 96


  C:0BCBH         LINE#         641
  C:0C07H         LINE#         642
  C:0C07H         LINE#         643
  C:0C07H         LINE#         644
  C:0C07H         LINE#         645
  C:0C07H         LINE#         646
  C:0C0CH         LINE#         647
  C:0C0CH         LINE#         648
  C:0C12H         LINE#         649
  C:0C12H         LINE#         650
  C:0C12H         LINE#         651
  C:0C12H         LINE#         652
  C:0C12H         LINE#         653
  C:0C12H         LINE#         654
  C:0C15H         LINE#         655
  C:0C20H         LINE#         656
  C:0C20H         LINE#         660
  C:0C26H         LINE#         661
  C:0C26H         LINE#         662
  C:0C28H         LINE#         663
  C:0C31H         LINE#         664
  C:0C3AH         LINE#         665
  C:0C5CH         LINE#         666
  C:0C67H         LINE#         667
  C:0C84H         LINE#         668
  C:0CA7H         LINE#         669
  C:0CB2H         LINE#         670
  C:0CB2H         LINE#         671
  C:0CB8H         LINE#         672
  C:0CB8H         LINE#         673
  C:0CBAH         LINE#         674
  C:0CC5H         LINE#         675
  C:0CE2H         LINE#         676
  C:0D05H         LINE#         677
  C:0D14H         LINE#         678
  C:0D14H         LINE#         679
  C:0D46H         LINE#         680
  C:0D4EH         LINE#         681
  C:0D4EH         LINE#         682
  C:0D55H         LINE#         683
  C:0D55H         LINE#         684
  C:0D58H         LINE#         685
  C:0D58H         LINE#         686
  C:0D58H         LINE#         687
  C:0D58H         LINE#         688
  C:0D5AH         LINE#         689
  C:0D5AH         LINE#         690
  C:0D5AH         LINE#         691
  C:0D5AH         LINE#         692
  C:0D5AH         LINE#         694
  C:0D5AH         LINE#         695
  C:0D5AH         LINE#         696
  C:0D5AH         LINE#         697
  C:0D5FH         LINE#         698
  C:0D5FH         LINE#         699
  C:0D65H         LINE#         700
  C:0D65H         LINE#         701
BL51 BANKED LINKER/LOCATER V6.22                                                      08/26/2021  06:15:46  PAGE 97


  C:0D65H         LINE#         702
  C:0D65H         LINE#         703
  C:0D65H         LINE#         704
  C:0D65H         LINE#         705
  C:0D68H         LINE#         706
  C:0D73H         LINE#         707
  C:0D73H         LINE#         709
  C:0D85H         LINE#         710
  C:0D8BH         LINE#         711
  C:0D8BH         LINE#         712
  C:0D8DH         LINE#         713
  C:0D96H         LINE#         714
  C:0DBEH         LINE#         715
  C:0DE9H         LINE#         716
  C:0E0CH         LINE#         717
  C:0E35H         LINE#         718
  C:0E60H         LINE#         719
  C:0E84H         LINE#         720
  C:0EB2H         LINE#         721
  C:0ED6H         LINE#         722
  C:0EE1H         LINE#         723
  C:0EE6H         LINE#         724
  C:0EE6H         LINE#         725
  C:0EECH         LINE#         726
  C:0EECH         LINE#         727
  C:0EEEH         LINE#         728
  C:0EF7H         LINE#         729
  C:0F50H         LINE#         730
  C:0F59H         LINE#         731
  C:0F81H         LINE#         732
  C:0FACH         LINE#         733
  C:0FCFH         LINE#         734
  C:0FF8H         LINE#         735
  C:1023H         LINE#         736
  C:1047H         LINE#         737
  C:1075H         LINE#         738
  C:1099H         LINE#         739
  C:10C9H         LINE#         740
  C:10EDH         LINE#         741
  C:10EDH         LINE#         742
  C:10F4H         LINE#         743
  C:10F4H         LINE#         744
  C:10F6H         LINE#         745
  C:10F8H         LINE#         746
  C:10F8H         LINE#         747
  C:10FEH         LINE#         748
  C:10FEH         LINE#         749
  C:1100H         LINE#         750
  C:1105H         LINE#         751
  C:1105H         LINE#         752
  C:1105H         LINE#         753
  C:1105H         LINE#         754
  C:1108H         LINE#         755
  C:1113H         LINE#         756
  C:1113H         LINE#         762
  C:1119H         LINE#         763
  C:1119H         LINE#         764
BL51 BANKED LINKER/LOCATER V6.22                                                      08/26/2021  06:15:46  PAGE 98


  C:111BH         LINE#         765
  C:1124H         LINE#         766
  C:1147H         LINE#         767
  C:1172H         LINE#         768
  C:1196H         LINE#         769
  C:11B9H         LINE#         770
  C:11DDH         LINE#         771
  C:11FFH         LINE#         772
  C:120AH         LINE#         773
  C:120DH         LINE#         774
  C:120DH         LINE#         775
  C:1210H         LINE#         776
  C:1221H         LINE#         777
  C:122AH         LINE#         778
  C:122CH         LINE#         779
  C:1236H         LINE#         780
  C:1238H         LINE#         781
  C:1238H         LINE#         782
  C:1238H         LINE#         783
  C:123EH         LINE#         784
  C:123EH         LINE#         785
  C:1240H         LINE#         786
  C:1249H         LINE#         787
  C:127BH         LINE#         788
  C:12A6H         LINE#         789
  C:12CAH         LINE#         790
  C:12CDH         LINE#         791
  C:12CDH         LINE#         792
  C:12DBH         LINE#         793
  C:12F3H         LINE#         794
  C:1318H         LINE#         796
  C:1318H         LINE#         797
  C:132CH         LINE#         798
  C:132EH         LINE#         799
  C:132EH         LINE#         800
  C:132EH         LINE#         801
  C:1362H         LINE#         802
  C:1395H         LINE#         803
  C:13C9H         LINE#         804
  C:13C9H         LINE#         805
  C:13D3H         LINE#         806
  C:13D3H         LINE#         807
  C:13ECH         LINE#         808
  C:13ECH         LINE#         809
  C:13ECH         LINE#         810
  C:13ECH         LINE#         811
  C:13EEH         LINE#         812
  C:13F1H         LINE#         813
  C:13F1H         LINE#         814
  C:13F1H         LINE#         815
  C:13F1H         LINE#         816
  C:13F7H         LINE#         817
  C:13F7H         LINE#         818
  C:1402H         LINE#         819
  C:1405H         LINE#         820
  C:1405H         LINE#         821
  C:1407H         LINE#         822
BL51 BANKED LINKER/LOCATER V6.22                                                      08/26/2021  06:15:46  PAGE 99


  C:140FH         LINE#         823
  C:140FH         LINE#         824
  C:1412H         LINE#         825
  C:1412H         LINE#         826
  C:1414H         LINE#         827
  C:141CH         LINE#         828
  C:141CH         LINE#         829
  C:143BH         LINE#         830
  C:145AH         LINE#         831
  C:1464H         LINE#         832
  C:1464H         LINE#         833
  C:1464H         LINE#         834
  C:1466H         LINE#         835
  C:1466H         LINE#         836
  C:1466H         LINE#         837
  C:1466H         LINE#         838
  C:146CH         LINE#         839
  C:146CH         LINE#         840
  C:1475H         LINE#         841
  C:1477H         LINE#         842
  C:1481H         LINE#         843
  C:1483H         LINE#         844
  C:148BH         LINE#         845
  C:148BH         LINE#         846
  C:148EH         LINE#         847
  C:1490H         LINE#         848
  C:1492H         LINE#         849
  C:1497H         LINE#         850
  C:1497H         LINE#         851
  C:14B6H         LINE#         852
  C:14D0H         LINE#         853
  C:14DAH         LINE#         854
  C:14EBH         LINE#         855
  C:14EBH         LINE#         856
  C:14EDH         LINE#         857
  C:14EDH         LINE#         858
  C:14EDH         LINE#         859
  C:14EDH         LINE#         860
  C:14F6H         LINE#         861
  C:14F8H         LINE#         862
  C:14F8H         LINE#         863
  C:14F8H         LINE#         864
  C:14F8H         LINE#         865
  C:14FDH         LINE#         866
  C:14FDH         LINE#         867
  C:1503H         LINE#         868
  C:1503H         LINE#         869
  C:1505H         LINE#         870
  C:150FH         LINE#         871
  C:150FH         LINE#         872
  C:1512H         LINE#         873
  C:1514H         LINE#         874
  C:1519H         LINE#         875
  C:1522H         LINE#         876
  C:1522H         LINE#         877
  C:1522H         LINE#         878
  C:1522H         LINE#         879
BL51 BANKED LINKER/LOCATER V6.22                                                      08/26/2021  06:15:46  PAGE 100


  C:1522H         LINE#         880
  C:1525H         LINE#         881
  C:1530H         LINE#         882
  C:1530H         LINE#         885
  C:1542H         LINE#         887
  C:154BH         LINE#         888
  C:154BH         LINE#         891
  C:1551H         LINE#         892
  C:1551H         LINE#         893
  C:1553H         LINE#         894
  C:155CH         LINE#         895
  C:1582H         LINE#         896
  C:15A6H         LINE#         897
  C:15CFH         LINE#         898
  C:15DAH         LINE#         900
  C:15E1H         LINE#         901
  C:15E8H         LINE#         902
  C:15EDH         LINE#         903
  C:162EH         LINE#         905
  C:162EH         LINE#         906
  C:1634H         LINE#         907
  C:1634H         LINE#         908
  C:1636H         LINE#         909
  C:163FH         LINE#         910
  C:167BH         LINE#         911
  C:16A1H         LINE#         912
  C:16C5H         LINE#         913
  C:16EEH         LINE#         914
  C:16F9H         LINE#         915
  C:16F9H         LINE#         916
  C:16FCH         LINE#         917
  C:16FCH         LINE#         918
  C:16FEH         LINE#         919
  C:1707H         LINE#         920
  C:1710H         LINE#         921
  C:1710H         LINE#         922
  C:1716H         LINE#         923
  C:1716H         LINE#         924
  C:1718H         LINE#         925
  C:1721H         LINE#         926
  C:177DH         LINE#         927
  C:1788H         LINE#         928
  C:1797H         LINE#         929
  C:17A3H         LINE#         930
  C:17CBH         LINE#         931
  C:17CEH         LINE#         932
  C:17D0H         LINE#         933
  C:180CH         LINE#         934
  C:1832H         LINE#         935
  C:1856H         LINE#         936
  C:187FH         LINE#         937
  C:188DH         LINE#         938
  C:1895H         LINE#         939
  C:18A1H         LINE#         940
  C:18B9H         LINE#         941
  C:18C2H         LINE#         942
  C:18C2H         LINE#         943
BL51 BANKED LINKER/LOCATER V6.22                                                      08/26/2021  06:15:46  PAGE 101


  C:18C9H         LINE#         944
  C:18C9H         LINE#         945
  C:18D0H         LINE#         946
  C:18D0H         LINE#         947
  C:18D0H         LINE#         948
  C:18D0H         LINE#         949
  C:18D2H         LINE#         950
  C:18D4H         LINE#         951
  C:18D4H         LINE#         952
  C:18D4H         LINE#         953
  C:18D4H         LINE#         954
  C:18DAH         LINE#         955
  C:18DCH         LINE#         956
  C:18DCH         LINE#         957
  C:18DCH         LINE#         958
  C:18DCH         LINE#         959
  C:18E1H         LINE#         960
  C:18E1H         LINE#         961
  C:18E7H         LINE#         962
  C:18E7H         LINE#         963
  C:18E9H         LINE#         964
  C:18EEH         LINE#         965
  C:18F5H         LINE#         966
  C:18FCH         LINE#         967
  C:18FCH         LINE#         968
  C:18FCH         LINE#         969
  C:18FCH         LINE#         970
  C:18FFH         LINE#         971
  C:190AH         LINE#         972
  C:190AH         LINE#         974
  C:1910H         LINE#         975
  C:1910H         LINE#         976
  C:1912H         LINE#         977
  C:191BH         LINE#         978
  C:1941H         LINE#         979
  C:1963H         LINE#         980
  C:1989H         LINE#         981
  C:19ACH         LINE#         982
  C:19D2H         LINE#         983
  C:19F5H         LINE#         984
  C:1A00H         LINE#         985
  C:1A03H         LINE#         986
  C:1A21H         LINE#         987
  C:1A21H         LINE#         988
  C:1A27H         LINE#         989
  C:1A27H         LINE#         990
  C:1A29H         LINE#         991
  C:1A32H         LINE#         992
  C:1A75H         LINE#         993
  C:1A9BH         LINE#         994
  C:1ABDH         LINE#         995
  C:1AE3H         LINE#         996
  C:1B06H         LINE#         997
  C:1B2CH         LINE#         998
  C:1B4FH         LINE#         999
  C:1B75H         LINE#         1000
  C:1B99H         LINE#         1001
BL51 BANKED LINKER/LOCATER V6.22                                                      08/26/2021  06:15:46  PAGE 102


  C:1BACH         LINE#         1002
  C:1BACH         LINE#         1003
  C:1BAEH         LINE#         1004
  C:1BB1H         LINE#         1005
  C:1BB1H         LINE#         1006
  C:1BB1H         LINE#         1007
  C:1BB8H         LINE#         1008
  C:1BB8H         LINE#         1009
  C:1BBAH         LINE#         1010
  C:1BBCH         LINE#         1011
  C:1BBCH         LINE#         1012
  C:1BC2H         LINE#         1013
  C:1BC2H         LINE#         1014
  C:1BC4H         LINE#         1015
  C:1BCDH         LINE#         1016
  C:1C32H         LINE#         1019
  C:1C41H         LINE#         1020
  C:1C50H         LINE#         1021
  C:1C5FH         LINE#         1022
  C:1C84H         LINE#         1023
  C:1CA9H         LINE#         1024
  C:1CB2H         LINE#         1025
  C:1CB9H         LINE#         1026
  C:1CBAH         LINE#         1027
  C:1CBAH         LINE#         1028
  C:1CBAH         LINE#         1029
  C:1CBAH         LINE#         1030
  C:1CBDH         LINE#         1032
  C:1CC8H         LINE#         1033
  C:1CC8H         LINE#         1034
  C:1CDAH         LINE#         1038
  C:1CDDH         LINE#         1039
  C:1CDDH         LINE#         1040
  C:1CDFH         LINE#         1041
  C:1CE8H         LINE#         1042
  C:1CF3H         LINE#         1043
  C:1CF6H         LINE#         1044
  C:1CF6H         LINE#         1045
  C:1CFCH         LINE#         1046
  C:1CFEH         LINE#         1047
  C:1CFEH         LINE#         1048
  C:1D03H         LINE#         1049
  C:1D08H         LINE#         1050
  C:1D08H         LINE#         1051
  C:1D0BH         LINE#         1052
  C:1D0BH         LINE#         1053
  C:1D0DH         LINE#         1054
  C:1D13H         LINE#         1055
  C:1D13H         LINE#         1056
  C:1D19H         LINE#         1057
  C:1D19H         LINE#         1058
  C:1D1FH         LINE#         1059
  C:1D25H         LINE#         1060
  C:1D25H         LINE#         1061
  C:1D25H         LINE#         1062
  C:1D39H         LINE#         1063
  C:1D66H         LINE#         1064
BL51 BANKED LINKER/LOCATER V6.22                                                      08/26/2021  06:15:46  PAGE 103


  C:1D66H         LINE#         1065
  C:1D6DH         LINE#         1066
  C:1D6DH         LINE#         1067
  C:1D74H         LINE#         1068
  C:1D74H         LINE#         1069
  C:1D74H         LINE#         1070
  C:1D74H         LINE#         1071
  C:1D76H         LINE#         1072
  C:1D78H         LINE#         1073
  C:1D78H         LINE#         1074
  C:1D78H         LINE#         1075
  C:1D78H         LINE#         1076
  C:1D81H         LINE#         1077
  C:1D86H         LINE#         1078
  C:1DAFH         LINE#         1079
  C:1DAFH         LINE#         1080
  C:1DAFH         LINE#         1081
  C:1DAFH         LINE#         1082
  C:1DB4H         LINE#         1083
  C:1DB4H         LINE#         1084
  C:1DBAH         LINE#         1085
  C:1DBAH         LINE#         1086
  C:1DBCH         LINE#         1087
  C:1DC2H         LINE#         1088
  C:1DCAH         LINE#         1090
  C:1DCFH         LINE#         1091
  C:1DD4H         LINE#         1092
  C:1DD9H         LINE#         1093
  C:1DD9H         LINE#         1094
  C:1DD9H         LINE#         1095
  C:1DDCH         LINE#         1096
  C:1DE7H         LINE#         1097
  C:1DE7H         LINE#         1100
  C:1DEDH         LINE#         1101
  C:1DEDH         LINE#         1102
  C:1DEFH         LINE#         1103
  C:1DF8H         LINE#         1104
  C:1E23H         LINE#         1105
  C:1E45H         LINE#         1106
  C:1E70H         LINE#         1107
  C:1E93H         LINE#         1108
  C:1EBEH         LINE#         1109
  C:1EE1H         LINE#         1110
  C:1F0BH         LINE#         1111
  C:1F16H         LINE#         1113
  C:1F1DH         LINE#         1114
  C:1F24H         LINE#         1115
  C:1F24H         LINE#         1116
  C:1F27H         LINE#         1117
  C:1F27H         LINE#         1118
  C:1F29H         LINE#         1119
  C:1F32H         LINE#         1120
  C:1F3BH         LINE#         1121
  C:1F3BH         LINE#         1122
  C:1F41H         LINE#         1123
  C:1F41H         LINE#         1124
  C:1F43H         LINE#         1125
BL51 BANKED LINKER/LOCATER V6.22                                                      08/26/2021  06:15:46  PAGE 104


  C:1F4CH         LINE#         1126
  C:1F71H         LINE#         1127
  C:1F96H         LINE#         1128
  C:1FC1H         LINE#         1129
  C:1FE3H         LINE#         1130
  C:200EH         LINE#         1131
  C:2031H         LINE#         1132
  C:205CH         LINE#         1133
  C:207FH         LINE#         1134
  C:20A9H         LINE#         1135
  C:20CCH         LINE#         1136
  C:20EEH         LINE#         1137
  C:2100H         LINE#         1138
  C:210BH         LINE#         1139
  C:2116H         LINE#         1140
  C:211EH         LINE#         1141
  C:2130H         LINE#         1142
  C:213BH         LINE#         1143
  C:2146H         LINE#         1144
  C:214EH         LINE#         1145
  C:2166H         LINE#         1146
  C:2174H         LINE#         1148
  C:217CH         LINE#         1149
  C:2189H         LINE#         1150
  C:2197H         LINE#         1151
  C:21A5H         LINE#         1152
  C:21B3H         LINE#         1153
  C:21C1H         LINE#         1154
  C:21CAH         LINE#         1155
  C:21CAH         LINE#         1156
  C:21D1H         LINE#         1157
  C:21D1H         LINE#         1158
  C:21D8H         LINE#         1159
  C:21D8H         LINE#         1160
  C:21D8H         LINE#         1161
  C:21D8H         LINE#         1162
  C:21DAH         LINE#         1163
  C:21DCH         LINE#         1164
  C:21DCH         LINE#         1165
  C:21DCH         LINE#         1166
  C:21DCH         LINE#         1167
  C:21F0H         LINE#         1168
  C:2204H         LINE#         1169
  C:2204H         LINE#         1170
  C:2204H         LINE#         1171
  C:2204H         LINE#         1172
  C:2204H         LINE#         1173
  C:2204H         LINE#         1174
  C:2204H         LINE#         1175
  C:2204H         LINE#         1176
  C:2209H         LINE#         1177
  C:2209H         LINE#         1178
  C:220FH         LINE#         1179
  C:220FH         LINE#         1180
  C:2211H         LINE#         1181
  C:2219H         LINE#         1183
  C:2220H         LINE#         1184
BL51 BANKED LINKER/LOCATER V6.22                                                      08/26/2021  06:15:46  PAGE 105


  C:2227H         LINE#         1185
  C:2230H         LINE#         1186
  C:2235H         LINE#         1187
  C:2235H         LINE#         1188
  C:2235H         LINE#         1189
  C:2238H         LINE#         1191
  C:2243H         LINE#         1192
  C:2243H         LINE#         1196
  C:2246H         LINE#         1197
  C:2246H         LINE#         1198
  C:2248H         LINE#         1199
  C:2251H         LINE#         1200
  C:2275H         LINE#         1201
  C:2280H         LINE#         1202
  C:2285H         LINE#         1203
  C:228AH         LINE#         1204
  C:228FH         LINE#         1205
  C:228FH         LINE#         1206
  C:2292H         LINE#         1207
  C:2292H         LINE#         1208
  C:2294H         LINE#         1209
  C:229BH         LINE#         1210
  C:22A1H         LINE#         1211
  C:22A1H         LINE#         1212
  C:22AAH         LINE#         1213
  C:22AAH         LINE#         1214
  C:22ACH         LINE#         1215
  C:22AEH         LINE#         1216
  C:22B5H         LINE#         1217
  C:22B5H         LINE#         1218
  C:22B5H         LINE#         1219
  C:22B5H         LINE#         1220
  C:22BCH         LINE#         1221
  C:22BCH         LINE#         1222
  C:22C3H         LINE#         1223
  C:22C3H         LINE#         1224
  C:22C3H         LINE#         1225
  C:22C3H         LINE#         1226
  C:22C5H         LINE#         1227
  C:22C7H         LINE#         1228
  C:22C7H         LINE#         1229
  C:22C7H         LINE#         1230
  C:22C7H         LINE#         1231
  C:22CDH         LINE#         1232
  C:22D1H         LINE#         1234
  C:22D1H         LINE#         1235
  C:22D6H         LINE#         1236
  C:22DBH         LINE#         1237
  C:22DBH         LINE#         1238
  C:22DBH         LINE#         1239
  C:22DBH         LINE#         1240
  C:22DBH         LINE#         1241
  C:22E0H         LINE#         1242
  C:22E0H         LINE#         1243
  C:22E6H         LINE#         1244
  C:22E6H         LINE#         1245
  C:22E8H         LINE#         1246
BL51 BANKED LINKER/LOCATER V6.22                                                      08/26/2021  06:15:46  PAGE 106


  C:22F0H         LINE#         1247
  C:22F8H         LINE#         1248
  C:22FDH         LINE#         1249
  C:2302H         LINE#         1250
  C:2304H         LINE#         1251
  C:2309H         LINE#         1252
  C:2309H         LINE#         1253
  C:2309H         LINE#         1254
  C:230CH         LINE#         1256
  C:2317H         LINE#         1257
  C:2317H         LINE#         1265
  C:2321H         LINE#         1266
  C:2321H         LINE#         1267
  C:2327H         LINE#         1268
  C:2327H         LINE#         1269
  C:2336H         LINE#         1270
  C:2338H         LINE#         1272
  C:2346H         LINE#         1273
  C:234CH         LINE#         1274
  C:234CH         LINE#         1275
  C:234EH         LINE#         1276
  C:235CH         LINE#         1277
  C:2384H         LINE#         1278
  C:23E1H         LINE#         1279
  C:243FH         LINE#         1280
  C:249DH         LINE#         1281
  C:24FCH         LINE#         1282
  C:24FFH         LINE#         1283
  C:24FFH         LINE#         1284
  C:250AH         LINE#         1285
  C:250CH         LINE#         1286
  C:250EH         LINE#         1287
  C:2511H         LINE#         1288
  C:2511H         LINE#         1289
  C:251CH         LINE#         1290
  C:251EH         LINE#         1291
  C:251EH         LINE#         1292
  C:251EH         LINE#         1293
  C:2528H         LINE#         1294
  C:2528H         LINE#         1295
  C:2541H         LINE#         1296
  C:2541H         LINE#         1297
  C:2541H         LINE#         1298
  C:2541H         LINE#         1299
  C:2543H         LINE#         1300
  C:2546H         LINE#         1301
  C:2546H         LINE#         1302
  C:2546H         LINE#         1303
  C:2546H         LINE#         1304
  C:254CH         LINE#         1305
  C:255AH         LINE#         1306
  C:255AH         LINE#         1307
  C:255CH         LINE#         1308
  C:2563H         LINE#         1309
  C:2563H         LINE#         1310
  C:256CH         LINE#         1311
  C:25ABH         LINE#         1312
BL51 BANKED LINKER/LOCATER V6.22                                                      08/26/2021  06:15:46  PAGE 107


  C:25B6H         LINE#         1313
  C:25B9H         LINE#         1315
  C:25BEH         LINE#         1316
  C:25BEH         LINE#         1317
  C:25C1H         LINE#         1318
  C:25C1H         LINE#         1319
  C:25C1H         LINE#         1320
  C:25C1H         LINE#         1321
  C:25C7H         LINE#         1322
  C:25CFH         LINE#         1323
  C:25CFH         LINE#         1324
  C:25D2H         LINE#         1325
  C:25DAH         LINE#         1326
  C:25DAH         LINE#         1327
  C:25E3H         LINE#         1328
  C:2621H         LINE#         1329
  C:262CH         LINE#         1330
  C:262EH         LINE#         1332
  C:2634H         LINE#         1333
  C:2634H         LINE#         1334
  C:2636H         LINE#         1335
  C:2636H         LINE#         1336
  C:2636H         LINE#         1337
  C:2636H         LINE#         1338
  C:263EH         LINE#         1339
  C:2640H         LINE#         1340
  C:2640H         LINE#         1341
  C:2640H         LINE#         1342
  C:2640H         LINE#         1343
  C:2645H         LINE#         1344
  C:2645H         LINE#         1345
  C:264BH         LINE#         1346
  C:264BH         LINE#         1347
  C:264DH         LINE#         1348
  C:2652H         LINE#         1349
  C:2652H         LINE#         1350
  C:2652H         LINE#         1351
  C:2655H         LINE#         1352
  C:265EH         LINE#         1353
  C:265EH         LINE#         1356
  C:2664H         LINE#         1357
  C:2664H         LINE#         1358
  C:2666H         LINE#         1359
  C:266FH         LINE#         1360
  C:2678H         LINE#         1361
  C:269AH         LINE#         1362
  C:26D8H         LINE#         1363
  C:26FBH         LINE#         1364
  C:273BH         LINE#         1365
  C:275FH         LINE#         1366
  C:278FH         LINE#         1367
  C:279AH         LINE#         1368
  C:279AH         LINE#         1369
  C:27A0H         LINE#         1370
  C:27A0H         LINE#         1371
  C:27A2H         LINE#         1372
  C:27ABH         LINE#         1373
BL51 BANKED LINKER/LOCATER V6.22                                                      08/26/2021  06:15:46  PAGE 108


  C:27B1H         LINE#         1374
  C:27BAH         LINE#         1375
  C:27E2H         LINE#         1376
  C:2820H         LINE#         1377
  C:2843H         LINE#         1378
  C:2853H         LINE#         1379
  C:2853H         LINE#         1380
  C:2857H         LINE#         1381
  C:2857H         LINE#         1382
  C:287BH         LINE#         1383
  C:289DH         LINE#         1384
  C:28A0H         LINE#         1385
  C:28A8H         LINE#         1386
  C:28A8H         LINE#         1387
  C:28CCH         LINE#         1388
  C:28EEH         LINE#         1389
  C:28F0H         LINE#         1390
  C:28F8H         LINE#         1391
  C:28F8H         LINE#         1392
  C:291CH         LINE#         1393
  C:2941H         LINE#         1394
  C:2941H         LINE#         1395
  C:2941H         LINE#         1396
  C:2981H         LINE#         1397
  C:29A5H         LINE#         1398
  C:29B7H         LINE#         1399
  C:29B7H         LINE#         1400
  C:29BBH         LINE#         1401
  C:29BBH         LINE#         1402
  C:29E1H         LINE#         1403
  C:2A04H         LINE#         1404
  C:2A07H         LINE#         1405
  C:2A0FH         LINE#         1406
  C:2A0FH         LINE#         1407
  C:2A33H         LINE#         1408
  C:2A56H         LINE#         1409
  C:2A58H         LINE#         1410
  C:2A60H         LINE#         1411
  C:2A60H         LINE#         1412
  C:2A84H         LINE#         1413
  C:2AAAH         LINE#         1414
  C:2AAAH         LINE#         1415
  C:2AAAH         LINE#         1416
  C:2AB6H         LINE#         1417
  C:2AE1H         LINE#         1419
  C:2B12H         LINE#         1420
  C:2B12H         LINE#         1421
  C:2B1CH         LINE#         1422
  C:2B1CH         LINE#         1423
  C:2B35H         LINE#         1424
  C:2B35H         LINE#         1425
  C:2B35H         LINE#         1426
  C:2B35H         LINE#         1427
  C:2B3BH         LINE#         1428
  C:2B3BH         LINE#         1429
  C:2B3DH         LINE#         1430
  C:2B4FH         LINE#         1431
BL51 BANKED LINKER/LOCATER V6.22                                                      08/26/2021  06:15:46  PAGE 109


  C:2B6CH         LINE#         1432
  C:2B6FH         LINE#         1434
  C:2B71H         LINE#         1435
  C:2B74H         LINE#         1436
  C:2B74H         LINE#         1437
  C:2B74H         LINE#         1438
  C:2B74H         LINE#         1439
  C:2B7BH         LINE#         1440
  C:2B7BH         LINE#         1441
  C:2B8BH         LINE#         1442
  C:2B8EH         LINE#         1443
  C:2B91H         LINE#         1445
  C:2B91H         LINE#         1446
  C:2B98H         LINE#         1447
  C:2B98H         LINE#         1448
  C:2B9CH         LINE#         1449
  C:2B9CH         LINE#         1450
  C:2BA9H         LINE#         1451
  C:2BAAH         LINE#         1452
  C:2BADH         LINE#         1453
  C:2BB5H         LINE#         1454
  C:2BB5H         LINE#         1455
  C:2BC2H         LINE#         1456
  C:2BC3H         LINE#         1457
  C:2BC6H         LINE#         1458
  C:2BCEH         LINE#         1459
  C:2BCEH         LINE#         1460
  C:2BDBH         LINE#         1461
  C:2BDCH         LINE#         1462
  C:2BDCH         LINE#         1463
  C:2BDFH         LINE#         1464
  C:2BE4H         LINE#         1465
  C:2BE4H         LINE#         1466
  C:2BECH         LINE#         1467
  C:2BECH         LINE#         1468
  C:2C05H         LINE#         1469
  C:2C0FH         LINE#         1470
  C:2C12H         LINE#         1471
  C:2C16H         LINE#         1472
  C:2C16H         LINE#         1473
  C:2C23H         LINE#         1474
  C:2C25H         LINE#         1475
  C:2C28H         LINE#         1476
  C:2C33H         LINE#         1477
  C:2C33H         LINE#         1478
  C:2C40H         LINE#         1479
  C:2C42H         LINE#         1480
  C:2C42H         LINE#         1481
  C:2C45H         LINE#         1482
  C:2C50H         LINE#         1483
  C:2C50H         LINE#         1484
  C:2C59H         LINE#         1485
  C:2C66H         LINE#         1486
  C:2C68H         LINE#         1487
  C:2C68H         LINE#         1488
  C:2C68H         LINE#         1489
  C:2C6BH         LINE#         1490
BL51 BANKED LINKER/LOCATER V6.22                                                      08/26/2021  06:15:46  PAGE 110


  C:2C6BH         LINE#         1491
  C:2C6BH         LINE#         1492
  C:2C6BH         LINE#         1493
  C:2C72H         LINE#         1494
  C:2C72H         LINE#         1495
  C:2C7FH         LINE#         1496
  C:2C80H         LINE#         1497
  C:2C83H         LINE#         1499
  C:2C83H         LINE#         1500
  C:2C8AH         LINE#         1501
  C:2C8AH         LINE#         1502
  C:2C8EH         LINE#         1503
  C:2C8EH         LINE#         1504
  C:2C9AH         LINE#         1505
  C:2C9DH         LINE#         1506
  C:2CA0H         LINE#         1507
  C:2CA8H         LINE#         1508
  C:2CA8H         LINE#         1509
  C:2CB4H         LINE#         1510
  C:2CB4H         LINE#         1511
  C:2CB6H         LINE#         1512
  C:2CBEH         LINE#         1513
  C:2CBEH         LINE#         1514
  C:2CCAH         LINE#         1515
  C:2CCDH         LINE#         1516
  C:2CCDH         LINE#         1517
  C:2CD0H         LINE#         1518
  C:2CD5H         LINE#         1519
  C:2CD5H         LINE#         1520
  C:2CDDH         LINE#         1521
  C:2CDDH         LINE#         1522
  C:2CF3H         LINE#         1523
  C:2CFDH         LINE#         1524
  C:2CFFH         LINE#         1525
  C:2D03H         LINE#         1526
  C:2D03H         LINE#         1527
  C:2D0CH         LINE#         1528
  C:2D0FH         LINE#         1529
  C:2D11H         LINE#         1530
  C:2D19H         LINE#         1531
  C:2D19H         LINE#         1532
  C:2D22H         LINE#         1533
  C:2D25H         LINE#         1534
  C:2D25H         LINE#         1535
  C:2D27H         LINE#         1536
  C:2D2FH         LINE#         1537
  C:2D2FH         LINE#         1538
  C:2D35H         LINE#         1539
  C:2D3DH         LINE#         1540
  C:2D40H         LINE#         1541
  C:2D40H         LINE#         1542
  C:2D40H         LINE#         1543
  C:2D42H         LINE#         1544
  C:2D42H         LINE#         1545
  C:2D42H         LINE#         1546
  C:2D42H         LINE#         1547
  C:2D4EH         LINE#         1548
BL51 BANKED LINKER/LOCATER V6.22                                                      08/26/2021  06:15:46  PAGE 111


  C:2D4EH         LINE#         1549
  C:2D55H         LINE#         1550
  C:2D55H         LINE#         1551
  C:2D57H         LINE#         1552
  C:2D5BH         LINE#         1553
  C:2D5BH         LINE#         1554
  C:2D64H         LINE#         1555
  C:2D67H         LINE#         1556
  C:2D67H         LINE#         1557
  C:2D67H         LINE#         1558
  C:2D67H         LINE#         1559
  C:2D67H         LINE#         1560
  C:2D6CH         LINE#         1561
  C:2D6CH         LINE#         1562
  C:2D72H         LINE#         1563
  C:2D72H         LINE#         1564
  C:2D74H         LINE#         1565
  C:2D79H         LINE#         1566
  C:2D7DH         LINE#         1567
  C:2D82H         LINE#         1568
  C:2D82H         LINE#         1569
  C:2D82H         LINE#         1570
  C:2D85H         LINE#         1571
  C:2D90H         LINE#         1572
  C:2D90H         LINE#         1575
  C:2D96H         LINE#         1576
  C:2D96H         LINE#         1577
  C:2D98H         LINE#         1578
  C:2DA1H         LINE#         1579
  C:2DC4H         LINE#         1580
  C:2DE7H         LINE#         1581
  C:2E18H         LINE#         1582
  C:2E3CH         LINE#         1583
  C:2E60H         LINE#         1584
  C:2E90H         LINE#         1585
  C:2E9BH         LINE#         1586
  C:2E9BH         LINE#         1587
  C:2EA1H         LINE#         1588
  C:2EA1H         LINE#         1589
  C:2EA3H         LINE#         1590
  C:2EACH         LINE#         1591
  C:2ED7H         LINE#         1592
  C:2EFAH         LINE#         1593
  C:2F2BH         LINE#         1594
  C:2F4FH         LINE#         1595
  C:2F5FH         LINE#         1596
  C:2F5FH         LINE#         1597
  C:2F63H         LINE#         1598
  C:2F63H         LINE#         1599
  C:2F87H         LINE#         1600
  C:2FAAH         LINE#         1601
  C:2FACH         LINE#         1602
  C:2FB4H         LINE#         1603
  C:2FB4H         LINE#         1604
  C:2FD8H         LINE#         1605
  C:2FFEH         LINE#         1606
  C:2FFEH         LINE#         1607
BL51 BANKED LINKER/LOCATER V6.22                                                      08/26/2021  06:15:46  PAGE 112


  C:2FFEH         LINE#         1608
  C:3022H         LINE#         1609
  C:3034H         LINE#         1610
  C:3034H         LINE#         1612
  C:303CH         LINE#         1613
  C:303CH         LINE#         1614
  C:3060H         LINE#         1615
  C:3094H         LINE#         1616
  C:3094H         LINE#         1617
  C:30BDH         LINE#         1618
  C:30BFH         LINE#         1620
  C:30BFH         LINE#         1621
  C:30F0H         LINE#         1622
  C:30F0H         LINE#         1623
  C:30F0H         LINE#         1624
  C:30FAH         LINE#         1625
  C:30FAH         LINE#         1626
  C:3113H         LINE#         1627
  C:3113H         LINE#         1628
  C:3113H         LINE#         1629
  C:3113H         LINE#         1630
  C:3119H         LINE#         1631
  C:311EH         LINE#         1633
  C:3120H         LINE#         1634
  C:3123H         LINE#         1635
  C:3123H         LINE#         1636
  C:3123H         LINE#         1637
  C:3123H         LINE#         1638
  C:312AH         LINE#         1639
  C:312AH         LINE#         1640
  C:3137H         LINE#         1641
  C:3138H         LINE#         1642
  C:313BH         LINE#         1644
  C:313BH         LINE#         1645
  C:3142H         LINE#         1646
  C:3142H         LINE#         1647
  C:3146H         LINE#         1648
  C:3146H         LINE#         1649
  C:3153H         LINE#         1650
  C:3154H         LINE#         1651
  C:3157H         LINE#         1652
  C:3162H         LINE#         1653
  C:3162H         LINE#         1654
  C:316FH         LINE#         1655
  C:3170H         LINE#         1656
  C:3170H         LINE#         1657
  C:3173H         LINE#         1658
  C:317BH         LINE#         1659
  C:317BH         LINE#         1660
  C:3183H         LINE#         1661
  C:3183H         LINE#         1662
  C:3190H         LINE#         1663
  C:3191H         LINE#         1664
  C:3194H         LINE#         1665
  C:319CH         LINE#         1666
  C:319CH         LINE#         1667
  C:31A9H         LINE#         1668
BL51 BANKED LINKER/LOCATER V6.22                                                      08/26/2021  06:15:46  PAGE 113


  C:31A9H         LINE#         1669
  C:31ABH         LINE#         1670
  C:31ABH         LINE#         1671
  C:31ABH         LINE#         1672
  C:31ABH         LINE#         1673
  C:31ABH         LINE#         1674
  C:31AEH         LINE#         1675
  C:31AEH         LINE#         1676
  C:31AEH         LINE#         1677
  C:31AEH         LINE#         1678
  C:31B5H         LINE#         1679
  C:31B5H         LINE#         1680
  C:31C1H         LINE#         1681
  C:31C3H         LINE#         1682
  C:31C6H         LINE#         1684
  C:31C6H         LINE#         1685
  C:31CDH         LINE#         1686
  C:31CDH         LINE#         1687
  C:31D1H         LINE#         1688
  C:31D1H         LINE#         1689
  C:31DAH         LINE#         1690
  C:31DDH         LINE#         1691
  C:31DFH         LINE#         1692
  C:31E7H         LINE#         1693
  C:31E7H         LINE#         1694
  C:31F0H         LINE#         1695
  C:31F3H         LINE#         1696
  C:31F3H         LINE#         1697
  C:31F5H         LINE#         1698
  C:31FAH         LINE#         1699
  C:31FAH         LINE#         1700
  C:3202H         LINE#         1701
  C:3202H         LINE#         1702
  C:320BH         LINE#         1703
  C:320EH         LINE#         1704
  C:3210H         LINE#         1705
  C:3215H         LINE#         1706
  C:3215H         LINE#         1707
  C:321DH         LINE#         1708
  C:321DH         LINE#         1709
  C:3220H         LINE#         1710
  C:3220H         LINE#         1711
  C:3220H         LINE#         1712
  C:3220H         LINE#         1713
  C:3220H         LINE#         1714
  C:3222H         LINE#         1715
  C:3222H         LINE#         1716
  C:3222H         LINE#         1717
  C:3222H         LINE#         1718
  C:3228H         LINE#         1719
  C:322DH         LINE#         1721
  C:322DH         LINE#         1722
  C:3234H         LINE#         1723
  C:3234H         LINE#         1724
  C:323BH         LINE#         1725
  C:323BH         LINE#         1726
  C:323DH         LINE#         1727
BL51 BANKED LINKER/LOCATER V6.22                                                      08/26/2021  06:15:46  PAGE 114


  C:3241H         LINE#         1728
  C:3241H         LINE#         1729
  C:3248H         LINE#         1730
  C:3248H         LINE#         1731
  C:3251H         LINE#         1732
  C:3254H         LINE#         1733
  C:3254H         LINE#         1734
  C:3254H         LINE#         1735
  C:3254H         LINE#         1736
  C:3254H         LINE#         1737
  C:3254H         LINE#         1738
  C:3254H         LINE#         1739
  C:3259H         LINE#         1740
  C:3259H         LINE#         1741
  C:325FH         LINE#         1742
  C:325FH         LINE#         1743
  C:3261H         LINE#         1744
  C:3266H         LINE#         1745
  C:326AH         LINE#         1746
  C:3270H         LINE#         1747
  C:3270H         LINE#         1748
  C:3274H         LINE#         1749
  C:3274H         LINE#         1750
  C:327DH         LINE#         1751
  C:3287H         LINE#         1752
  C:328FH         LINE#         1754
  C:328FH         LINE#         1755
  C:32A9H         LINE#         1756
  C:32ABH         LINE#         1758
  C:32ABH         LINE#         1759
  C:32B4H         LINE#         1760
  C:32BBH         LINE#         1762
  C:32C1H         LINE#         1763
  C:32C1H         LINE#         1764
  C:32C1H         LINE#         1765
  C:32C1H         LINE#         1766
  C:32E1H         LINE#         1767
  C:32E3H         LINE#         1769
  C:32E6H         LINE#         1770
  C:32EFH         LINE#         1771
  C:32F4H         LINE#         1772
  C:32F4H         LINE#         1773
  C:32F4H         LINE#         1774
  C:32F7H         LINE#         1775
  C:3302H         LINE#         1776
  C:3302H         LINE#         1779
  C:3308H         LINE#         1780
  C:3308H         LINE#         1781
  C:330AH         LINE#         1782
  C:3316H         LINE#         1783
  C:331FH         LINE#         1784
  C:3341H         LINE#         1785
  C:3367H         LINE#         1786
  C:338BH         LINE#         1787
  C:3396H         LINE#         1788
  C:3396H         LINE#         1789
  C:3399H         LINE#         1790
BL51 BANKED LINKER/LOCATER V6.22                                                      08/26/2021  06:15:46  PAGE 115


  C:3399H         LINE#         1791
  C:339BH         LINE#         1792
  C:33A4H         LINE#         1793
  C:33C6H         LINE#         1794
  C:33ECH         LINE#         1795
  C:3410H         LINE#         1796
  C:3410H         LINE#         1797
  C:3417H         LINE#         1798
  C:3417H         LINE#         1799
  C:3423H         LINE#         1800
  C:3423H         LINE#         1801
  C:3423H         LINE#         1802
  C:3423H         LINE#         1803
  C:3425H         LINE#         1804
  C:3427H         LINE#         1805
  C:3427H         LINE#         1806
  C:3427H         LINE#         1807
  C:3427H         LINE#         1808
  C:3430H         LINE#         1809
  C:3433H         LINE#         1810
  C:3433H         LINE#         1811
  C:3433H         LINE#         1812
  C:3435H         LINE#         1813
  C:3435H         LINE#         1814
  C:3435H         LINE#         1815
  C:3435H         LINE#         1816
  C:3442H         LINE#         1817
  C:3444H         LINE#         1818
  C:3452H         LINE#         1819
  C:3455H         LINE#         1820
  C:3455H         LINE#         1821
  C:3455H         LINE#         1822
  C:3455H         LINE#         1823
  C:3455H         LINE#         1824
  C:3455H         LINE#         1825
  C:345AH         LINE#         1826
  C:345AH         LINE#         1827
  C:3460H         LINE#         1828
  C:3460H         LINE#         1829
  C:3462H         LINE#         1830
  C:346BH         LINE#         1831
  C:3470H         LINE#         1832
  C:3470H         LINE#         1833
  C:3470H         LINE#         1834
  C:3473H         LINE#         1835
  C:347EH         LINE#         1836
  C:347EH         LINE#         1838
  C:3484H         LINE#         1839
  C:3484H         LINE#         1840
  C:3486H         LINE#         1841
  C:3493H         LINE#         1842
  C:349CH         LINE#         1843
  C:34BEH         LINE#         1844
  C:34E4H         LINE#         1845
  C:3508H         LINE#         1846
  C:352CH         LINE#         1847
  C:3537H         LINE#         1848
BL51 BANKED LINKER/LOCATER V6.22                                                      08/26/2021  06:15:46  PAGE 116


  C:3537H         LINE#         1849
  C:353DH         LINE#         1850
  C:353DH         LINE#         1851
  C:353FH         LINE#         1852
  C:3548H         LINE#         1853
  C:356AH         LINE#         1854
  C:3590H         LINE#         1855
  C:35B4H         LINE#         1856
  C:35D9H         LINE#         1857
  C:35D9H         LINE#         1858
  C:35E0H         LINE#         1859
  C:35E0H         LINE#         1860
  C:35ECH         LINE#         1861
  C:35ECH         LINE#         1862
  C:35ECH         LINE#         1863
  C:35ECH         LINE#         1864
  C:35EEH         LINE#         1865
  C:35F0H         LINE#         1866
  C:35F0H         LINE#         1867
  C:35F0H         LINE#         1868
  C:35F0H         LINE#         1869
  C:3602H         LINE#         1870
  C:360AH         LINE#         1871
  C:360CH         LINE#         1872
  C:360CH         LINE#         1873
  C:360CH         LINE#         1874
  C:360CH         LINE#         1875
  C:361DH         LINE#         1876
  C:3624H         LINE#         1877
  C:3624H         LINE#         1878
  C:3624H         LINE#         1879
  C:3624H         LINE#         1880
  C:3629H         LINE#         1881
  C:3629H         LINE#         1882
  C:362FH         LINE#         1883
  C:362FH         LINE#         1884
  C:3631H         LINE#         1885
  C:363AH         LINE#         1886
  C:3643H         LINE#         1887
  C:3648H         LINE#         1888
  C:3648H         LINE#         1889
  C:3648H         LINE#         1890
  C:364BH         LINE#         1891
  C:3656H         LINE#         1892
  C:3656H         LINE#         1894
  C:365CH         LINE#         1895
  C:365CH         LINE#         1896
  C:365EH         LINE#         1897
  C:366BH         LINE#         1898
  C:3674H         LINE#         1899
  C:3696H         LINE#         1900
  C:36BCH         LINE#         1901
  C:36E0H         LINE#         1902
  C:3704H         LINE#         1903
  C:370FH         LINE#         1904
  C:370FH         LINE#         1905
  C:3715H         LINE#         1906
BL51 BANKED LINKER/LOCATER V6.22                                                      08/26/2021  06:15:46  PAGE 117


  C:3715H         LINE#         1907
  C:3717H         LINE#         1908
  C:3720H         LINE#         1909
  C:3742H         LINE#         1910
  C:3768H         LINE#         1911
  C:378CH         LINE#         1912
  C:37B1H         LINE#         1913
  C:37B1H         LINE#         1914
  C:37B8H         LINE#         1915
  C:37B8H         LINE#         1916
  C:37C4H         LINE#         1917
  C:37C4H         LINE#         1918
  C:37C4H         LINE#         1919
  C:37C4H         LINE#         1920
  C:37C6H         LINE#         1921
  C:37C8H         LINE#         1922
  C:37C8H         LINE#         1923
  C:37C8H         LINE#         1924
  C:37C8H         LINE#         1925
  C:37DAH         LINE#         1926
  C:37E2H         LINE#         1927
  C:37E4H         LINE#         1928
  C:37E4H         LINE#         1929
  C:37E4H         LINE#         1930
  C:37E4H         LINE#         1931
  C:37F5H         LINE#         1932
  C:37FCH         LINE#         1933
  C:37FCH         LINE#         1934
  C:37FCH         LINE#         1935
  C:37FCH         LINE#         1936
  C:3801H         LINE#         1937
  C:3801H         LINE#         1938
  C:3807H         LINE#         1939
  C:3807H         LINE#         1940
  C:3809H         LINE#         1941
  C:3812H         LINE#         1942
  C:381BH         LINE#         1943
  C:3820H         LINE#         1944
  C:3820H         LINE#         1945
  C:3820H         LINE#         1946
  C:3823H         LINE#         1947
  C:382EH         LINE#         1948
  C:382EH         LINE#         1949
  C:3831H         LINE#         1950
  C:3831H         LINE#         1951
  C:3833H         LINE#         1952
  C:383CH         LINE#         1953
  C:386DH         LINE#         1954
  C:3878H         LINE#         1955
  C:3878H         LINE#         1956
  C:387BH         LINE#         1957
  C:387BH         LINE#         1958
  C:387DH         LINE#         1959
  C:3886H         LINE#         1960
  C:38B8H         LINE#         1961
  C:38B8H         LINE#         1962
  C:38BFH         LINE#         1963
BL51 BANKED LINKER/LOCATER V6.22                                                      08/26/2021  06:15:46  PAGE 118


  C:38BFH         LINE#         1964
  C:38C7H         LINE#         1965
  C:38C7H         LINE#         1966
  C:38C7H         LINE#         1967
  C:38C7H         LINE#         1968
  C:38C9H         LINE#         1969
  C:38CBH         LINE#         1970
  C:38CBH         LINE#         1971
  C:38CBH         LINE#         1972
  C:38CBH         LINE#         1973
  C:38D2H         LINE#         1974
  C:38D6H         LINE#         1976
  C:38DCH         LINE#         1977
  C:38E4H         LINE#         1978
  C:38E4H         LINE#         1979
  C:38E4H         LINE#         1980
  C:38E4H         LINE#         1981
  C:38E9H         LINE#         1982
  C:38E9H         LINE#         1983
  C:38EFH         LINE#         1984
  C:38EFH         LINE#         1985
  C:38F1H         LINE#         1986
  C:38FAH         LINE#         1987
  C:38FFH         LINE#         1988
  C:38FFH         LINE#         1989
  C:38FFH         LINE#         1990
  C:3902H         LINE#         1991
  C:390DH         LINE#         1992
  C:390DH         LINE#         1993
  C:3910H         LINE#         1994
  C:3910H         LINE#         1995
  C:3912H         LINE#         1996
  C:391BH         LINE#         1997
  C:394BH         LINE#         1998
  C:3956H         LINE#         1999
  C:3956H         LINE#         2000
  C:3959H         LINE#         2001
  C:3959H         LINE#         2002
  C:395BH         LINE#         2003
  C:3964H         LINE#         2004
  C:3995H         LINE#         2005
  C:3995H         LINE#         2006
  C:399CH         LINE#         2007
  C:399CH         LINE#         2008
  C:39A4H         LINE#         2009
  C:39A4H         LINE#         2010
  C:39A4H         LINE#         2011
  C:39A4H         LINE#         2012
  C:39A6H         LINE#         2013
  C:39A8H         LINE#         2014
  C:39A8H         LINE#         2015
  C:39A8H         LINE#         2016
  C:39A8H         LINE#         2017
  C:39AFH         LINE#         2018
  C:39B3H         LINE#         2020
  C:39B9H         LINE#         2021
  C:39C1H         LINE#         2022
BL51 BANKED LINKER/LOCATER V6.22                                                      08/26/2021  06:15:46  PAGE 119


  C:39C1H         LINE#         2023
  C:39C1H         LINE#         2024
  C:39C1H         LINE#         2025
  C:39C6H         LINE#         2026
  C:39C6H         LINE#         2027
  C:39CCH         LINE#         2028
  C:39CCH         LINE#         2029
  C:39CEH         LINE#         2030
  C:39D7H         LINE#         2031
  C:39DCH         LINE#         2032
  C:39DCH         LINE#         2033
  C:39DCH         LINE#         2034
  C:39DFH         LINE#         2035
  C:39EAH         LINE#         2036
  C:39EAH         LINE#         2037
  C:39EDH         LINE#         2038
  C:39EDH         LINE#         2039
  C:39EFH         LINE#         2040
  C:39F8H         LINE#         2041
  C:3A29H         LINE#         2042
  C:3A34H         LINE#         2043
  C:3A34H         LINE#         2044
  C:3A37H         LINE#         2045
  C:3A37H         LINE#         2046
  C:3A39H         LINE#         2047
  C:3A42H         LINE#         2048
  C:3A74H         LINE#         2049
  C:3A74H         LINE#         2050
  C:3A7BH         LINE#         2051
  C:3A7BH         LINE#         2052
  C:3A83H         LINE#         2053
  C:3A83H         LINE#         2054
  C:3A83H         LINE#         2055
  C:3A83H         LINE#         2056
  C:3A85H         LINE#         2057
  C:3A87H         LINE#         2058
  C:3A87H         LINE#         2059
  C:3A87H         LINE#         2060
  C:3A87H         LINE#         2061
  C:3A8EH         LINE#         2062
  C:3A92H         LINE#         2064
  C:3A98H         LINE#         2065
  C:3AA0H         LINE#         2066
  C:3AA0H         LINE#         2067
  C:3AA0H         LINE#         2068
  C:3AA0H         LINE#         2069
  C:3AA5H         LINE#         2070
  C:3AA5H         LINE#         2071
  C:3AABH         LINE#         2072
  C:3AABH         LINE#         2073
  C:3AADH         LINE#         2074
  C:3AB6H         LINE#         2075
  C:3ABBH         LINE#         2076
  C:3ABBH         LINE#         2077
  C:3ABBH         LINE#         2078
  C:3ABEH         LINE#         2079
  C:3AC5H         LINE#         2080
BL51 BANKED LINKER/LOCATER V6.22                                                      08/26/2021  06:15:46  PAGE 120


  C:3AC5H         LINE#         2081
  C:3AC8H         LINE#         2082
  C:3ACBH         LINE#         2083
  C:3AD6H         LINE#         2084
  C:3AD6H         LINE#         2085
  C:3AD8H         LINE#         2086
  C:3ADAH         LINE#         2087
  C:3ADCH         LINE#         2088
  C:3ADEH         LINE#         2089
  C:3AE0H         LINE#         2090
  C:3AE6H         LINE#         2091
  C:3AECH         LINE#         2092
  C:3AEEH         LINE#         2093
  C:3AF4H         LINE#         2094
  C:3AFAH         LINE#         2095
  C:3AFAH         LINE#         2096
  C:3AFDH         LINE#         2098
  C:3B08H         LINE#         2099
  C:3B08H         LINE#         2104
  C:3B0CH         LINE#         2117
  C:3B0FH         LINE#         2118
  C:3B0FH         LINE#         2119
  C:3B11H         LINE#         2120
  C:3B1AH         LINE#         2121
  C:3B25H         LINE#         2122
  C:3B2AH         LINE#         2123
  C:3B30H         LINE#         2124
  C:3B34H         LINE#         2125
  C:3B38H         LINE#         2126
  C:3B3AH         LINE#         2127
  C:3B3CH         LINE#         2128
  C:3B4EH         LINE#         2129
  C:3B4EH         LINE#         2130
  C:3B5CH         LINE#         2131
  C:3B69H         LINE#         2132
  C:3B71H         LINE#         2133
  C:3B78H         LINE#         2134
  C:3B7FH         LINE#         2135
  C:3B7FH         LINE#         2136
  C:3B82H         LINE#         2137
  C:3B82H         LINE#         2138
  C:3B84H         LINE#         2139
  C:3B8DH         LINE#         2140
  C:3B96H         LINE#         2141
  C:3B96H         LINE#         2142
  C:3B99H         LINE#         2143
  C:3B99H         LINE#         2145
  C:3B9BH         LINE#         2146
  C:3BAEH         LINE#         2147
  C:3BAEH         LINE#         2148
  C:3BB0H         LINE#         2149
  C:3BB2H         LINE#         2150
  C:3BB2H         LINE#         2151
  C:3BB2H         LINE#         2152
  C:3BB8H         LINE#         2153
  C:3BB8H         LINE#         2154
  C:3BBAH         LINE#         2155
BL51 BANKED LINKER/LOCATER V6.22                                                      08/26/2021  06:15:46  PAGE 121


  C:3BC1H         LINE#         2156
  C:3BC7H         LINE#         2157
  C:3BC7H         LINE#         2158
  C:3BD0H         LINE#         2159
  C:3BDFH         LINE#         2160
  C:3BDFH         LINE#         2161
  C:3BE4H         LINE#         2162
  C:3BEEH         LINE#         2163
  C:3BF6H         LINE#         2164
  C:3C05H         LINE#         2165
  C:3C05H         LINE#         2166
  C:3C0AH         LINE#         2167
  C:3C14H         LINE#         2168
  C:3C1CH         LINE#         2169
  C:3C40H         LINE#         2170
  C:3C64H         LINE#         2171
  C:3C88H         LINE#         2172
  C:3CACH         LINE#         2173
  C:3CBAH         LINE#         2174
  C:3CBFH         LINE#         2175
  C:3CE3H         LINE#         2176
  C:3D07H         LINE#         2177
  C:3D0DH         LINE#         2178
  C:3D0DH         LINE#         2179
  C:3D28H         LINE#         2180
  C:3D2BH         LINE#         2181
  C:3D48H         LINE#         2182
  C:3D48H         LINE#         2183
  C:3D4BH         LINE#         2184
  C:3D52H         LINE#         2185
  C:3D52H         LINE#         2186
  C:3D6EH         LINE#         2187
  C:3D71H         LINE#         2188
  C:3D8EH         LINE#         2189
  C:3D8EH         LINE#         2190
  C:3D91H         LINE#         2191
  C:3D98H         LINE#         2192
  C:3D98H         LINE#         2193
  C:3DB4H         LINE#         2194
  C:3DBCH         LINE#         2195
  C:3DD6H         LINE#         2196
  C:3DDCH         LINE#         2197
  C:3DDEH         LINE#         2198
  C:3DE5H         LINE#         2199
  C:3DE5H         LINE#         2200
  C:3E01H         LINE#         2201
  C:3E08H         LINE#         2202
  C:3E22H         LINE#         2203
  C:3E28H         LINE#         2204
  C:3E28H         LINE#         2207
  C:3E39H         LINE#         2208
  C:3E39H         LINE#         2209
  C:3E39H         LINE#         2210
  C:3E3CH         LINE#         2211
  C:3E3EH         LINE#         2212
  C:3E3EH         LINE#         2213
  C:3E44H         LINE#         2214
BL51 BANKED LINKER/LOCATER V6.22                                                      08/26/2021  06:15:46  PAGE 122


  C:3E46H         LINE#         2215
  C:3E46H         LINE#         2216
  C:3E49H         LINE#         2217
  C:3E4BH         LINE#         2218
  C:3E4BH         LINE#         2219
  C:3E51H         LINE#         2220
  C:3E51H         LINE#         2221
  C:3E51H         LINE#         2222
  C:3E5BH         LINE#         2223
  C:3E60H         LINE#         2224
  C:3E66H         LINE#         2225
  C:3E6CH         LINE#         2226
  C:3E76H         LINE#         2227
  C:3E7BH         LINE#         2228
  C:3E81H         LINE#         2229
  C:3E87H         LINE#         2231
  C:3E9AH         LINE#         2232
  C:3E9AH         LINE#         2233
  C:3EC3H         LINE#         2234
  C:3EC3H         LINE#         2235
  C:3EC5H         LINE#         2236
  C:3EC7H         LINE#         2237
  C:3EC9H         LINE#         2238
  C:3EC9H         LINE#         2239
  C:3ED1H         LINE#         2242
  C:3ED7H         LINE#         2243
  C:3EDEH         LINE#         2244
  C:3EF3H         LINE#         2245
  C:3F04H         LINE#         2246
  C:3F17H         LINE#         2247
  C:3F17H         LINE#         2248
  C:3F32H         LINE#         2249
  C:3F3AH         LINE#         2252
  C:3F8DH         LINE#         2253
  C:3F8DH         LINE#         2254
  C:3F93H         LINE#         2255
  C:3FACH         LINE#         2256
  C:3FC8H         LINE#         2257
  C:3FCBH         LINE#         2258
  C:3FDCH         LINE#         2259
  C:3FE1H         LINE#         2260
  C:3FE6H         LINE#         2261
  C:3FEFH         LINE#         2262
  C:3FF2H         LINE#         2263
  C:4003H         LINE#         2264
  C:4008H         LINE#         2265
  C:400DH         LINE#         2266
  C:4016H         LINE#         2267
  C:4019H         LINE#         2268
  C:4019H         LINE#         2269
  C:4024H         LINE#         2270
  C:4030H         LINE#         2271
  C:403CH         LINE#         2272
  C:4048H         LINE#         2273
  C:4055H         LINE#         2274
  C:4062H         LINE#         2275
  C:406EH         LINE#         2276
BL51 BANKED LINKER/LOCATER V6.22                                                      08/26/2021  06:15:46  PAGE 123


  C:407BH         LINE#         2277
  C:4088H         LINE#         2278
  C:4092H         LINE#         2279
  C:409AH         LINE#         2280
  C:40A0H         LINE#         2281
  C:40A8H         LINE#         2282
  C:40AEH         LINE#         2283
  C:40B6H         LINE#         2284
  C:40BCH         LINE#         2285
  C:40C4H         LINE#         2286
  C:40CDH         LINE#         2287
  C:40D2H         LINE#         2289
  C:40D5H         LINE#         2290
  C:40D5H         LINE#         2291
  C:40D8H         LINE#         2292
  C:40D8H         LINE#         2293
  C:40FCH         LINE#         2294
  C:4120H         LINE#         2295
  C:4120H         LINE#         2296
  C:4129H         LINE#         2297
  C:4129H         LINE#         2298
  C:4130H         LINE#         2299
  C:4130H         LINE#         2300
  C:413CH         LINE#         2301
  C:413CH         LINE#         2302
  C:413CH         LINE#         2303
  C:413CH         LINE#         2304
  C:413EH         LINE#         2305
  C:4140H         LINE#         2306
  C:4140H         LINE#         2307
  C:4140H         LINE#         2308
  C:4140H         LINE#         2309
  C:4143H         LINE#         2310
  C:4143H         LINE#         2311
  C:4146H         LINE#         2312
  C:414AH         LINE#         2314
  C:414CH         LINE#         2315
  C:414CH         LINE#         2316
  C:414EH         LINE#         2317
  C:414EH         LINE#         2318
  C:414EH         LINE#         2319
  C:414EH         LINE#         2320
  C:4150H         LINE#         2321
  C:4150H         LINE#         2322
  C:4150H         LINE#         2323
  C:4150H         LINE#         2324
  C:4155H         LINE#         2325
  C:4155H         LINE#         2326
  C:4158H         LINE#         2327
  C:4158H         LINE#         2328
  C:415AH         LINE#         2329
  C:4161H         LINE#         2330
  C:4168H         LINE#         2331
  C:416EH         LINE#         2332
  C:4170H         LINE#         2333
  C:4170H         LINE#         2334
  C:4170H         LINE#         2336
BL51 BANKED LINKER/LOCATER V6.22                                                      08/26/2021  06:15:46  PAGE 124


  C:4173H         LINE#         2337
  C:4173H         LINE#         2338
  C:4175H         LINE#         2339
  C:4178H         LINE#         2340
  C:4181H         LINE#         2341
  C:4184H         LINE#         2342
  C:4184H         LINE#         2343
  C:4186H         LINE#         2344
  C:418DH         LINE#         2345
  C:418FH         LINE#         2346
  C:4194H         LINE#         2347
  C:4196H         LINE#         2348
  C:4198H         LINE#         2349
  C:419BH         LINE#         2350
  C:419BH         LINE#         2351
  C:419DH         LINE#         2352
  C:419FH         LINE#         2353
  C:41A2H         LINE#         2354
  C:41A7H         LINE#         2355
  C:41A9H         LINE#         2356
  C:41ABH         LINE#         2357
  C:41ADH         LINE#         2358
  C:41B0H         LINE#         2359
  C:41B0H         LINE#         2360
  C:41B2H         LINE#         2361
  C:41B4H         LINE#         2362
  C:41B7H         LINE#         2363
  C:41C0H         LINE#         2364
  C:41C2H         LINE#         2365
  C:41C5H         LINE#         2366
  C:41CAH         LINE#         2367
  C:41D1H         LINE#         2368
  C:41D3H         LINE#         2369
  C:41D3H         LINE#         2370
  C:41DAH         LINE#         2371
  C:41DAH         LINE#         2372
  C:41DDH         LINE#         2373
  C:41DDH         LINE#         2375
  C:41E0H         LINE#         2376
  C:41E0H         LINE#         2377
  C:41E5H         LINE#         2378
  C:41E7H         LINE#         2379
  C:41E7H         LINE#         2380
  C:41E7H         LINE#         2381
  C:41EAH         LINE#         2382
  C:41EAH         LINE#         2383
  C:41EDH         LINE#         2384
  C:41EDH         LINE#         2385
  C:41F0H         LINE#         2386
  C:41F0H         LINE#         2387
  C:41F0H         LINE#         2388
  C:41F6H         LINE#         2389
  C:41F6H         LINE#         2390
  C:41F9H         LINE#         2391
  C:41F9H         LINE#         2392
  C:41FCH         LINE#         2393
  C:41FCH         LINE#         2394
BL51 BANKED LINKER/LOCATER V6.22                                                      08/26/2021  06:15:46  PAGE 125


  C:4201H         LINE#         2395
  C:4208H         LINE#         2397
  C:420BH         LINE#         2398
  C:420BH         LINE#         2399
  C:4212H         LINE#         2400
  C:4212H         LINE#         2401
  C:4215H         LINE#         2402
  C:4215H         LINE#         2403
  C:421CH         LINE#         2404
  C:421CH         LINE#         2405
  C:4222H         LINE#         2406
  C:4222H         LINE#         2408
  C:4224H         LINE#         2409
  C:422CH         LINE#         2410
  C:4235H         LINE#         2412
  C:423CH         LINE#         2413
  C:423CH         LINE#         2415
  C:423FH         LINE#         2416
  C:4241H         LINE#         2417
  C:4243H         LINE#         2418
  C:4246H         LINE#         2419
  C:424DH         LINE#         2420
  C:4255H         LINE#         2421
  C:4255H         LINE#         2422
  C:426BH         LINE#         2423
  C:4273H         LINE#         2425
  C:4279H         LINE#         2426
  C:4299H         LINE#         2427
  C:429BH         LINE#         2428
  C:42A3H         LINE#         2429
  C:42A3H         LINE#         2430
  C:42A5H         LINE#         2431
  C:42A8H         LINE#         2432
  C:42A8H         LINE#         2433
  C:42B1H         LINE#         2434
  C:42B1H         LINE#         2435
  C:42BBH         LINE#         2436
  C:42BBH         LINE#         2437
  C:42BEH         LINE#         2440
  C:42C7H         LINE#         2441
  C:42D3H         LINE#         2442
  C:42D3H         LINE#         2443
  C:42E9H         LINE#         2444
  C:42E9H         LINE#         2446
  C:42EFH         LINE#         2447
  C:42EFH         LINE#         2448
  C:4300H         LINE#         2449
  C:4300H         LINE#         2450
  C:4353H         LINE#         2451
  C:435BH         LINE#         2452
  C:4364H         LINE#         2453
  C:43A0H         LINE#         2454
  C:43A9H         LINE#         2455
  C:43ACH         LINE#         2456
  C:43ACH         LINE#         2457
  C:43ACH         LINE#         2458
  C:43B2H         LINE#         2459
BL51 BANKED LINKER/LOCATER V6.22                                                      08/26/2021  06:15:46  PAGE 126


  C:43B2H         LINE#         2460
  C:43CAH         LINE#         2461
  C:43CAH         LINE#         2462
  C:43D1H         LINE#         2463
  C:43D3H         LINE#         2464
  C:43DAH         LINE#         2465
  C:43DCH         LINE#         2466
  C:43DCH         LINE#         2467
  C:43DCH         LINE#         2468
  C:43DCH         LINE#         2470
  C:43DCH         LINE#         2472
  C:43DCH         LINE#         2473
  -------         ENDPROC       MAIN
  -------         ENDMOD        MAIN

  -------         MODULE        ?C?FPADD
  C:671EH         PUBLIC        ?C?FPADD
  C:671AH         PUBLIC        ?C?FPSUB
  -------         ENDMOD        ?C?FPADD

  -------         MODULE        ?C?FPMUL
  C:680FH         PUBLIC        ?C?FPMUL
  -------         ENDMOD        ?C?FPMUL

  -------         MODULE        ?C?FPDIV
  C:6918H         PUBLIC        ?C?FPDIV
  -------         ENDMOD        ?C?FPDIV

  -------         MODULE        ?C?FPCMP
  C:69B7H         PUBLIC        ?C?FPCMP
  C:69B5H         PUBLIC        ?C?FPCMP3
  -------         ENDMOD        ?C?FPCMP

  -------         MODULE        ?C?FPNEG
  C:6A2EH         PUBLIC        ?C?FPNEG
  -------         ENDMOD        ?C?FPNEG

  -------         MODULE        ?C?FCAST
  C:6A49H         PUBLIC        ?C?FCASTC
  C:6A44H         PUBLIC        ?C?FCASTI
  C:6A3FH         PUBLIC        ?C?FCASTL
  -------         ENDMOD        ?C?FCAST

  -------         MODULE        ?C?CASTF
  C:6A7DH         PUBLIC        ?C?CASTF
  -------         ENDMOD        ?C?CASTF

  -------         MODULE        PRINTF
  X:1019H         PUBLIC        ?_PRINTF?BYTE
  X:1019H         PUBLIC        ?_SPRINTF?BYTE
  C:9922H         PUBLIC        _PRINTF
  C:991CH         PUBLIC        _SPRINTF
  -------         ENDMOD        PRINTF

  -------         MODULE        SQRT
  C:D86EH         PUBLIC        _SQRT
  -------         ENDMOD        SQRT
BL51 BANKED LINKER/LOCATER V6.22                                                      08/26/2021  06:15:46  PAGE 127



  -------         MODULE        ATAN2
  X:0FFDH         PUBLIC        ?_atan2?BYTE
  C:DB09H         PUBLIC        _atan2
  -------         ENDMOD        ATAN2

  -------         MODULE        SIN
  C:BCC0H         PUBLIC        _COS
  C:BCD6H         PUBLIC        _SIN
  C:BD12H         PUBLIC        _TAN
  -------         ENDMOD        SIN

  -------         MODULE        ATAN
  C:C8F0H         PUBLIC        _ATAN
  -------         ENDMOD        ATAN

  -------         MODULE        ASIN
  C:EBBEH         PUBLIC        _ASIN
  -------         ENDMOD        ASIN

  -------         MODULE        POW
  X:0FE6H         PUBLIC        ?_pow?BYTE
  C:C274H         PUBLIC        _pow
  -------         ENDMOD        POW

  -------         MODULE        ?C?CHKFLOAT
  C:6AFEH         PUBLIC        ?C?CHKFLOAT
  -------         ENDMOD        ?C?CHKFLOAT

  -------         MODULE        ?C?FPROUND
  C:6B18H         PUBLIC        ?C?FPROUND
  -------         ENDMOD        ?C?FPROUND

  -------         MODULE        ?C?FPCONVERT
  C:6B55H         PUBLIC        ?C?FPCONVERT
  -------         ENDMOD        ?C?FPCONVERT

  -------         MODULE        EXP
  C:DBDEH         PUBLIC        _EXP
  -------         ENDMOD        EXP

  -------         MODULE        LOG
  C:C7DBH         PUBLIC        _LOG
  C:C7D7H         PUBLIC        _LOG10
  -------         ENDMOD        LOG

  -------         MODULE        ?C?FTNPWR
  C:6CD7H         PUBLIC        ?C?FTNPWR
  -------         ENDMOD        ?C?FTNPWR

  -------         MODULE        ?C?COPY
  C:6DE7H         PUBLIC        ?C?COPY
  -------         ENDMOD        ?C?COPY

  -------         MODULE        ?C?CLDPTR
  C:6E0DH         PUBLIC        ?C?CLDPTR
  -------         ENDMOD        ?C?CLDPTR
BL51 BANKED LINKER/LOCATER V6.22                                                      08/26/2021  06:15:46  PAGE 128



  -------         MODULE        ?C?CLDOPTR
  C:6E26H         PUBLIC        ?C?CLDOPTR
  -------         ENDMOD        ?C?CLDOPTR

  -------         MODULE        ?C?CILDOPTR
  C:6E53H         PUBLIC        ?C?CILDOPTR
  -------         ENDMOD        ?C?CILDOPTR

  -------         MODULE        ?C?CSTPTR
  C:6E86H         PUBLIC        ?C?CSTPTR
  -------         ENDMOD        ?C?CSTPTR

  -------         MODULE        ?C?CSTOPTR
  C:6E98H         PUBLIC        ?C?CSTOPTR
  -------         ENDMOD        ?C?CSTOPTR

  -------         MODULE        ?C?UIDIV
  C:6EBAH         PUBLIC        ?C?UIDIV
  -------         ENDMOD        ?C?UIDIV

  -------         MODULE        ?C?SIDIV
  C:6F0FH         PUBLIC        ?C?SIDIV
  -------         ENDMOD        ?C?SIDIV

  -------         MODULE        ?C?IILDX
  C:6F45H         PUBLIC        ?C?IILDX
  -------         ENDMOD        ?C?IILDX

  -------         MODULE        ?C?ILDIX
  C:6F5BH         PUBLIC        ?C?ILDIX
  -------         ENDMOD        ?C?ILDIX

  -------         MODULE        ?C?ILDPTR
  C:6F71H         PUBLIC        ?C?ILDPTR
  -------         ENDMOD        ?C?ILDPTR

  -------         MODULE        ?C?ILDOPTR
  C:6F9CH         PUBLIC        ?C?ILDOPTR
  -------         ENDMOD        ?C?ILDOPTR

  -------         MODULE        ?C?ISTPTR
  C:6FD4H         PUBLIC        ?C?ISTPTR
  -------         ENDMOD        ?C?ISTPTR

  -------         MODULE        ?C?ISTOPTR
  C:6FF3H         PUBLIC        ?C?ISTOPTR
  -------         ENDMOD        ?C?ISTOPTR

  -------         MODULE        ?C?LMUL
  C:7020H         PUBLIC        ?C?LMUL
  -------         ENDMOD        ?C?LMUL

  -------         MODULE        ?C?SLDIV
  C:EAFFH         PUBLIC        ?C?SLDIV
  -------         ENDMOD        ?C?SLDIV

BL51 BANKED LINKER/LOCATER V6.22                                                      08/26/2021  06:15:46  PAGE 129


  -------         MODULE        ?C?LNEG
  C:706FH         PUBLIC        ?C?LNEG
  -------         ENDMOD        ?C?LNEG

  -------         MODULE        ?C?SLCMP
  C:707DH         PUBLIC        ?C?SLCMP
  -------         ENDMOD        ?C?SLCMP

  -------         MODULE        ?C?SLSHR
  C:7093H         PUBLIC        ?C?SLSHR
  -------         ENDMOD        ?C?SLSHR

  -------         MODULE        ?C?LSHL
  C:70A7H         PUBLIC        ?C?LSHL
  -------         ENDMOD        ?C?LSHL

  -------         MODULE        ?C?LLDPTR
  C:70BAH         PUBLIC        ?C?LLDPTR
  -------         ENDMOD        ?C?LLDPTR

  -------         MODULE        ?C?LLDOPTR
  C:70DAH         PUBLIC        ?C?LLDOPTR
  -------         ENDMOD        ?C?LLDOPTR

  -------         MODULE        ?C?LSTPTR
  C:710AH         PUBLIC        ?C?LSTPTR
  -------         ENDMOD        ?C?LSTPTR

  -------         MODULE        ?C?LSTOPTR
  C:7124H         PUBLIC        ?C?LSTOPTR
  -------         ENDMOD        ?C?LSTOPTR

  -------         MODULE        ?C?LLDIDATA
  C:7148H         PUBLIC        ?C?LLDIDATA
  -------         ENDMOD        ?C?LLDIDATA

  -------         MODULE        ?C?LLDXDATA
  C:7154H         PUBLIC        ?C?LLDXDATA
  -------         ENDMOD        ?C?LLDXDATA

  -------         MODULE        ?C?LLDCODE
  C:7160H         PUBLIC        ?C?LLDCODE
  -------         ENDMOD        ?C?LLDCODE

  -------         MODULE        ?C?LLDIDATA0
  C:7170H         PUBLIC        ?C?LLDIDATA0
  -------         ENDMOD        ?C?LLDIDATA0

  -------         MODULE        ?C?LLDXDATA0
  C:717DH         PUBLIC        ?C?LLDXDATA0
  -------         ENDMOD        ?C?LLDXDATA0

  -------         MODULE        ?C?LLDCODE0
  C:7189H         PUBLIC        ?C?LLDCODE0
  -------         ENDMOD        ?C?LLDCODE0

  -------         MODULE        ?C?LSTIDATA
BL51 BANKED LINKER/LOCATER V6.22                                                      08/26/2021  06:15:46  PAGE 130


  C:7199H         PUBLIC        ?C?LSTIDATA
  -------         ENDMOD        ?C?LSTIDATA

  -------         MODULE        ?C?LSTXDATA
  C:71A5H         PUBLIC        ?C?LSTXDATA
  -------         ENDMOD        ?C?LSTXDATA

  -------         MODULE        ?C?LSTKXDATA
  C:71B1H         PUBLIC        ?C?LSTKXDATA
  -------         ENDMOD        ?C?LSTKXDATA

  -------         MODULE        ?C?OFFXADD
  C:71E2H         PUBLIC        ?C?OFFXADD
  -------         ENDMOD        ?C?OFFXADD

  -------         MODULE        ?C?PLDIXDATA
  C:71EEH         PUBLIC        ?C?PLDIXDATA
  -------         ENDMOD        ?C?PLDIXDATA

  -------         MODULE        ?C?PSTXDATA
  C:7205H         PUBLIC        ?C?PSTXDATA
  -------         ENDMOD        ?C?PSTXDATA

  -------         MODULE        ?C?CCASE
  C:720EH         PUBLIC        ?C?CCASE
  -------         ENDMOD        ?C?CCASE

  -------         MODULE        PUTCHAR
  C:EEEEH         PUBLIC        _PUTCHAR
  -------         ENDMOD        PUTCHAR

  -------         MODULE        RAND
  X:12D7H         PUBLIC        ?SRAND?BYTE
  C:E7EFH         PUBLIC        RAND
  C:E82DH         PUBLIC        _SRAND
  -------         ENDMOD        RAND

  -------         MODULE        STRCAT
  X:1006H         PUBLIC        ?_strcat?BYTE
  C:E1D3H         PUBLIC        _strcat
  -------         ENDMOD        STRCAT

  -------         MODULE        ?C?STRCPY
  C:7300H         PUBLIC        ?C?STRCPY
  -------         ENDMOD        ?C?STRCPY

  -------         MODULE        ?C?MEMCMP
  C:74A3H         PUBLIC        ?C?MEMCMP
  -------         ENDMOD        ?C?MEMCMP

  -------         MODULE        ?C?ULDIV
  C:7503H         PUBLIC        ?C?ULDIV
  -------         ENDMOD        ?C?ULDIV

  -------         MODULE        ?C?LLDPDATA
  C:7595H         PUBLIC        ?C?LLDPDATA
  -------         ENDMOD        ?C?LLDPDATA
BL51 BANKED LINKER/LOCATER V6.22                                                      08/26/2021  06:15:46  PAGE 131



  -------         MODULE        ?C?LSTPDATA
  C:75A1H         PUBLIC        ?C?LSTPDATA
  -------         ENDMOD        ?C?LSTPDATA

*** WARNING L16: UNCALLED SEGMENT, IGNORED FOR OVERLAY PROCESS
    SEGMENT: ?PR?PW02REST?PW02

*** WARNING L16: UNCALLED SEGMENT, IGNORED FOR OVERLAY PROCESS
    SEGMENT: ?PR?RDA5807MGETCURRENTFQ?RDA5807M

*** WARNING L16: UNCALLED SEGMENT, IGNORED FOR OVERLAY PROCESS
    SEGMENT: ?PR?RDA5807MGETCURRENTRSSI?RDA5807M

*** WARNING L16: UNCALLED SEGMENT, IGNORED FOR OVERLAY PROCESS
    SEGMENT: ?PR?RDA5807MSETMUTE?RDA5807M

*** WARNING L16: UNCALLED SEGMENT, IGNORED FOR OVERLAY PROCESS
    SEGMENT: ?PR?PCF8563DISABLETIMER?PCF8563

*** WARNING L16: UNCALLED SEGMENT, IGNORED FOR OVERLAY PROCESS
    SEGMENT: ?PR?_BME280SINGLEMEASUREMENT?BME280

*** WARNING L16: UNCALLED SEGMENT, IGNORED FOR OVERLAY PROCESS
    SEGMENT: ?PR?LSM6DSMDISABLEPEDOMETER?LSM6DSM

*** WARNING L16: UNCALLED SEGMENT, IGNORED FOR OVERLAY PROCESS
    SEGMENT: ?PR?_DELAY1US?DELAY

Program Size: data=121.2 xdata=4833 code=62642
LINK/LOCATE RUN COMPLETE.  8 WARNING(S),  0 ERROR(S)
