BL51 BANKED LINKER/LOCATER V6.22                                                        06/27/2021  08:53:58  PAGE 1


BL51 BANKED LINKER/LOCATER V6.22, INVOKED BY:
E:\INSTALL_FILES\KEIL\C51\BIN\BL51.EXE ..\Objects\PW02.obj, ..\Objects\oled.obj, ..\Objects\RDA5807M.obj, ..\Objects\PCF
>> 8563.obj, ..\Objects\BME280.obj, ..\Objects\Ellipsoid fitting.obj, ..\Objects\HMC5883L.obj, ..\Objects\LSM6DSM.obj, .
>> .\Objects\PowerManage.obj, ..\Objects\IIC.obj, ..\Objects\Sys.obj, ..\Objects\EEPROM.obj, ..\Objects\Buzzer.obj, ..\O
>> bjects\Delay.obj, ..\Objects\Display.obj, ..\Objects\main.obj TO ..\Objects\iWatch-v1.1 PRINT (..\Listings\iWatch-v1.
>> m51) RAMSIZE (256)


MEMORY MODEL: LARGE WITH FLOATING POINT ARITHMETIC


INPUT MODULES INCLUDED:
  ..\Objects\PW02.obj (PW02)
  ..\Objects\oled.obj (OLED)
  ..\Objects\RDA5807M.obj (RDA5807M)
  ..\Objects\PCF8563.obj (PCF8563)
  ..\Objects\BME280.obj (BME280)
  ..\Objects\Ellipsoid fitting.obj (ELLIPSOID_FITTING)
  ..\Objects\HMC5883L.obj (HMC5883L)
  ..\Objects\LSM6DSM.obj (LSM6DSM)
  ..\Objects\PowerManage.obj (POWERMANAGE)
  ..\Objects\IIC.obj (IIC)
  ..\Objects\Sys.obj (SYS)
  ..\Objects\EEPROM.obj (EEPROM)
  ..\Objects\Buzzer.obj (BUZZER)
  ..\Objects\Delay.obj (DELAY)
  ..\Objects\Display.obj (DISPLAY)
  ..\Objects\main.obj (MAIN)
  E:\INSTALL_FILES\KEIL\C51\LIB\C51FPL.LIB (?C?FPADD)
  E:\INSTALL_FILES\KEIL\C51\LIB\C51FPL.LIB (?C?FPMUL)
  E:\INSTALL_FILES\KEIL\C51\LIB\C51FPL.LIB (?C?FPDIV)
  E:\INSTALL_FILES\KEIL\C51\LIB\C51FPL.LIB (?C?FPCMP)
  E:\INSTALL_FILES\KEIL\C51\LIB\C51FPL.LIB (?C?FPNEG)
  E:\INSTALL_FILES\KEIL\C51\LIB\C51FPL.LIB (?C?FCAST)
  E:\INSTALL_FILES\KEIL\C51\LIB\C51FPL.LIB (?C?CASTF)
  E:\INSTALL_FILES\KEIL\C51\LIB\C51FPL.LIB (PRINTF)
  E:\INSTALL_FILES\KEIL\C51\LIB\C51FPL.LIB (SQRT)
  E:\INSTALL_FILES\KEIL\C51\LIB\C51FPL.LIB (ATAN2)
  E:\INSTALL_FILES\KEIL\C51\LIB\C51FPL.LIB (SIN)
  E:\INSTALL_FILES\KEIL\C51\LIB\C51FPL.LIB (ATAN)
  E:\INSTALL_FILES\KEIL\C51\LIB\C51FPL.LIB (ASIN)
  E:\INSTALL_FILES\KEIL\C51\LIB\C51FPL.LIB (?C?FPGETOPN)
  E:\INSTALL_FILES\KEIL\C51\LIB\C51FPL.LIB (?C?FPROUND)
  E:\INSTALL_FILES\KEIL\C51\LIB\C51FPL.LIB (?C?FPCONVERT)
  E:\INSTALL_FILES\KEIL\C51\LIB\C51FPL.LIB (?C?FPSERIES)
  E:\INSTALL_FILES\KEIL\C51\LIB\C51FPL.LIB (?C?FTNPWR)
  E:\INSTALL_FILES\KEIL\C51\LIB\C51L.LIB (?C_STARTUP)
  E:\INSTALL_FILES\KEIL\C51\LIB\C51L.LIB (?C?COPY)
  E:\INSTALL_FILES\KEIL\C51\LIB\C51L.LIB (?C?CLDPTR)
  E:\INSTALL_FILES\KEIL\C51\LIB\C51L.LIB (?C?CLDOPTR)
  E:\INSTALL_FILES\KEIL\C51\LIB\C51L.LIB (?C?CILDOPTR)
  E:\INSTALL_FILES\KEIL\C51\LIB\C51L.LIB (?C?CSTPTR)
  E:\INSTALL_FILES\KEIL\C51\LIB\C51L.LIB (?C?CSTOPTR)
  E:\INSTALL_FILES\KEIL\C51\LIB\C51L.LIB (?C?UIDIV)
  E:\INSTALL_FILES\KEIL\C51\LIB\C51L.LIB (?C?SIDIV)
  E:\INSTALL_FILES\KEIL\C51\LIB\C51L.LIB (?C?IILDX)
  E:\INSTALL_FILES\KEIL\C51\LIB\C51L.LIB (?C?ILDIX)
  E:\INSTALL_FILES\KEIL\C51\LIB\C51L.LIB (?C?ILDPTR)
BL51 BANKED LINKER/LOCATER V6.22                                                      06/27/2021  08:53:58  PAGE 2


  E:\INSTALL_FILES\KEIL\C51\LIB\C51L.LIB (?C?ILDOPTR)
  E:\INSTALL_FILES\KEIL\C51\LIB\C51L.LIB (?C?ISTPTR)
  E:\INSTALL_FILES\KEIL\C51\LIB\C51L.LIB (?C?ISTOPTR)
  E:\INSTALL_FILES\KEIL\C51\LIB\C51L.LIB (?C?LMUL)
  E:\INSTALL_FILES\KEIL\C51\LIB\C51L.LIB (?C?SLDIV)
  E:\INSTALL_FILES\KEIL\C51\LIB\C51L.LIB (?C?LNEG)
  E:\INSTALL_FILES\KEIL\C51\LIB\C51L.LIB (?C?SLCMP)
  E:\INSTALL_FILES\KEIL\C51\LIB\C51L.LIB (?C?SLSHR)
  E:\INSTALL_FILES\KEIL\C51\LIB\C51L.LIB (?C?LSHL)
  E:\INSTALL_FILES\KEIL\C51\LIB\C51L.LIB (?C?LLDPTR)
  E:\INSTALL_FILES\KEIL\C51\LIB\C51L.LIB (?C?LLDOPTR)
  E:\INSTALL_FILES\KEIL\C51\LIB\C51L.LIB (?C?LSTPTR)
  E:\INSTALL_FILES\KEIL\C51\LIB\C51L.LIB (?C?LSTOPTR)
  E:\INSTALL_FILES\KEIL\C51\LIB\C51L.LIB (?C?LLDIDATA)
  E:\INSTALL_FILES\KEIL\C51\LIB\C51L.LIB (?C?LLDXDATA)
  E:\INSTALL_FILES\KEIL\C51\LIB\C51L.LIB (?C?LLDCODE)
  E:\INSTALL_FILES\KEIL\C51\LIB\C51L.LIB (?C?LLDIDATA0)
  E:\INSTALL_FILES\KEIL\C51\LIB\C51L.LIB (?C?LLDXDATA0)
  E:\INSTALL_FILES\KEIL\C51\LIB\C51L.LIB (?C?LLDCODE0)
  E:\INSTALL_FILES\KEIL\C51\LIB\C51L.LIB (?C?LSTIDATA)
  E:\INSTALL_FILES\KEIL\C51\LIB\C51L.LIB (?C?LSTXDATA)
  E:\INSTALL_FILES\KEIL\C51\LIB\C51L.LIB (?C?LSTKXDATA)
  E:\INSTALL_FILES\KEIL\C51\LIB\C51L.LIB (?C?OFFXADD)
  E:\INSTALL_FILES\KEIL\C51\LIB\C51L.LIB (?C?PLDIXDATA)
  E:\INSTALL_FILES\KEIL\C51\LIB\C51L.LIB (?C?PSTXDATA)
  E:\INSTALL_FILES\KEIL\C51\LIB\C51L.LIB (?C?CCASE)
  E:\INSTALL_FILES\KEIL\C51\LIB\C51L.LIB (PUTCHAR)
  E:\INSTALL_FILES\KEIL\C51\LIB\C51L.LIB (STRCAT)
  E:\INSTALL_FILES\KEIL\C51\LIB\C51L.LIB (?C?STRCPY)
  E:\INSTALL_FILES\KEIL\C51\LIB\C51L.LIB (?C?MEMCMP)
  E:\INSTALL_FILES\KEIL\C51\LIB\C51L.LIB (?C_INIT)
  E:\INSTALL_FILES\KEIL\C51\LIB\C51L.LIB (?C?ULDIV)
  E:\INSTALL_FILES\KEIL\C51\LIB\C51L.LIB (?C?LLDPDATA)
  E:\INSTALL_FILES\KEIL\C51\LIB\C51L.LIB (?C?LSTPDATA)


LINK MAP OF MODULE:  ..\Objects\iWatch-v1.1 (PW02)


            TYPE    BASE      LENGTH    RELOCATION   SEGMENT NAME
            -----------------------------------------------------

            * * * * * * *   D A T A   M E M O R Y   * * * * * * *
            REG     0000H     0008H     ABSOLUTE     "REG BANK 0"
            REG     0008H     0008H     ABSOLUTE     "REG BANK 1"
            DATA    0010H     000AH     UNIT         ?DT?_SHOWSTRING?DISPLAY
            DATA    001AH     0006H     UNIT         ?DT?_CLEARCACHEAREA?DISPLAY
            BIT     0020H.0   0002H.0   UNIT         ?BI?MAIN
            BIT     0022H.0   0001H.1   UNIT         ?BI?PRINTF?PRINTF
            BIT     0023H.1   0000H.2   UNIT         ?BI?PW02
            BIT     0023H.3   0000H.2   UNIT         ?BI?ATAN?ATAN
            BIT     0023H.5   0000H.1   UNIT         ?BI?BUZZER
            BIT     0023H.6   0000H.1   UNIT         ?BI?SIN?SIN
                    0023H.7   0000H.1                *** GAP ***
            DATA    0024H     0008H     UNIT         ?DT?_BMPTOCACHE?DISPLAY
            DATA    002CH     0008H     UNIT         ?DT?_SCREENPUSHANIMATION?DISPLAY
            DATA    0034H     0008H     UNIT         ?DT?_SCREEROLLDOWN?DISPLAY
BL51 BANKED LINKER/LOCATER V6.22                                                      06/27/2021  08:53:58  PAGE 3


            DATA    003CH     0005H     UNIT         ?DT?PRINTF?PRINTF
            DATA    0041H     0004H     UNIT         ?DT?_OLED_DRAWBMP?OLED
            DATA    0045H     0004H     UNIT         ?DT?_IMUUPDATE?LSM6DSM
            DATA    0049H     0004H     UNIT         ?DT?_SCREENREFRESHAREA?DISPLAY
            DATA    004DH     0002H     UNIT         ?DT?IIC
            DATA    004FH     0002H     UNIT         ?DT?_CLEARCACHE?DISPLAY
            DATA    0051H     0002H     UNIT         ?DT?SAVESCREEN?DISPLAY
            IDATA   0053H     0030H     UNIT         ?ID?_IMUUPDATE?LSM6DSM
            IDATA   0083H     001CH     UNIT         ?ID?LSM6DSM
            IDATA   009FH     0001H     UNIT         ?STACK

            * * * * * * *  X D A T A   M E M O R Y  * * * * * * *
            XDATA   0000H     0C08H     UNIT         ?XD?DISPLAY
            XDATA   0C08H     00DAH     UNIT         ?XD?ELLIPSOID_FITTING
            XDATA   0CE2H     00C8H     UNIT         ?XD?MAIN
            XDATA   0DAAH     0081H     UNIT         ?XD?PW02
            XDATA   0E2BH     0075H     UNIT         ?XD?SYS
            XDATA   0EA0H     0054H     UNIT         ?XD?POWERMANAGE
            XDATA   0EF4H     0036H     UNIT         ?XD?BME280
            XDATA   0F2AH     0033H     UNIT         ?XD?_ELLIPSOID_FITTING_PROCESS?ELLIPSOID_FITTING
            XDATA   0F5DH     0030H     UNIT         ?XD?PRINTF?PRINTF
            XDATA   0F8DH     002AH     UNIT         ?XD?_CALCDATA_INPUT?ELLIPSOID_FITTING
            XDATA   0FB7H     0024H     UNIT         ?XD?COMPENSATE_HUMIDITY?BME280
            XDATA   0FDBH     0021H     UNIT         ?XD?BME280READCOMPENSATIONPARAMETER?BME280
            XDATA   0FFCH     001FH     UNIT         ?XD?_PW02SETNAME?PW02
            XDATA   101BH     0018H     UNIT         ?XD?RDA5807M
            XDATA   1033H     0018H     UNIT         ?XD?COMPENSATE_PRESSURE?BME280
            XDATA   104BH     0017H     UNIT         ?XD?_HMC5883L_GET_ANGLEXY?HMC5883L
            XDATA   1062H     0015H     UNIT         ?XD?_DRAWARM?DISPLAY
            XDATA   1077H     0014H     UNIT         ?XD?COMPENSATE_TEMPERATURE?BME280
            XDATA   108BH     0013H     UNIT         ?XD?HMC5883L
            XDATA   109EH     0012H     UNIT         ?XD?_PW02SETADVT?PW02
            XDATA   10B0H     0012H     UNIT         ?XD?_DISPLAYTIME?DISPLAY
            XDATA   10C2H     000FH     UNIT         ?XD?_LSM6DSMREADGYRANDACC?LSM6DSM
            XDATA   10D1H     000EH     UNIT         ?XD?_HMC5883L_SET_CALIBRATION_VALUE?HMC5883L
            XDATA   10DFH     000DH     UNIT         ?XD?_PW02SETBUAD?PW02
            XDATA   10ECH     000CH     UNIT         ?XD?_DRAWLINE?DISPLAY
            XDATA   10F8H     000BH     UNIT         ?XD?_BMPTOCACHE?DISPLAY
            XDATA   1103H     000BH     UNIT         ?XD?_SHOWSTRING?DISPLAY
            XDATA   110EH     000AH     UNIT         ?XD?_PCF8563READTIME?PCF8563
            XDATA   1118H     0009H     UNIT         ?XD?_SENDATCOMMAND?PW02
            XDATA   1121H     0009H     UNIT         ?XD?BME280_CAL_MEAS_DELAY?BME280
            XDATA   112AH     0009H     UNIT         ?XD?_ROW2_SWOP_ROW1?ELLIPSOID_FITTING
            XDATA   1133H     0009H     UNIT         ?XD?_ROW2_ADD_KROW1?ELLIPSOID_FITTING
            XDATA   113CH     0009H     UNIT         ?XD?_READ_HMC5883L?HMC5883L
            XDATA   1145H     0009H     UNIT         ?XD?GETBATTERYLIFE?POWERMANAGE
            XDATA   114EH     0009H     UNIT         ?XD?_STRCAT?STRCAT
            XDATA   1157H     0008H     UNIT         ?XD?RDA5807MWRITEREGS?RDA5807M
            XDATA   115FH     0008H     UNIT         ?XD?_PCF8563SETALARM?PCF8563
            XDATA   1167H     0008H     UNIT         ?XD?BME280READSENSORRAWDATA?BME280
            XDATA   116FH     0008H     UNIT         ?XD?_MATRIX_SOLVE?ELLIPSOID_FITTING
            XDATA   1177H     0008H     UNIT         ?XD?GETBATTERYVOLTAGE?POWERMANAGE
            XDATA   117FH     0008H     UNIT         ?XD?_ATAN2?ATAN2
            XDATA   1187H     0007H     UNIT         ?XD?_K_MUILTPLY_ROW?ELLIPSOID_FITTING
            XDATA   118EH     0007H     UNIT         ?XD?_I2C_READ_MULTIBYTES?IIC
            XDATA   1195H     0007H     UNIT         ?XD?_EEPROM_READ_N?EEPROM
            XDATA   119CH     0007H     UNIT         ?XD?_EEPROM_WRITE_N?EEPROM
BL51 BANKED LINKER/LOCATER V6.22                                                      06/27/2021  08:53:58  PAGE 4


            XDATA   11A3H     0007H     UNIT         ?XD?_CLEARCACHEAREA?DISPLAY
            XDATA   11AAH     0006H     UNIT         ?XD?_MOVEBIGGESTELEMENT_TO_TOP?ELLIPSOID_FITTING
            XDATA   11B0H     0006H     UNIT         ?XD?MATRIX_GAUSSELIMINATION?ELLIPSOID_FITTING
            XDATA   11B6H     0006H     UNIT         ?XD?_EEPROMREADCONFIGURATION?SYS
            XDATA   11BCH     0006H     UNIT         _XDATA_GROUP_
            XDATA   11C2H     0005H     UNIT         ?XD?_PCF8563WRITEDATE?PCF8563
            XDATA   11C7H     0005H     UNIT         ?XD?MATRIX_ROWSIMPLIFY?ELLIPSOID_FITTING
            XDATA   11CCH     0005H     UNIT         ?XD?_I2C_NOADDR_WRITE_MULTIBYTES?IIC
            XDATA   11D1H     0005H     UNIT         ?XD?_I2C_NOADDR_READ_MULTIBYTES?IIC
            XDATA   11D6H     0005H     UNIT         ?XD?_EEPROMWRITECONFIGURATION?SYS
            XDATA   11DBH     0004H     UNIT         ?XD?RDA5807MREADRGES?RDA5807M
            XDATA   11DFH     0004H     UNIT         ?XD?_RDA5807MSETFQ?RDA5807M
            XDATA   11E3H     0004H     UNIT         ?XD?_ABS?ELLIPSOID_FITTING
            XDATA   11E7H     0004H     UNIT         ?XD?_SCREENREFRESHAREA?DISPLAY
            XDATA   11EBH     0004H     UNIT         ?XD?_SCREENPUSHANIMATION?DISPLAY
            XDATA   11EFH     0004H     UNIT         ?XD?_SCREEROLLDOWN?DISPLAY
            XDATA   11F3H     0004H     UNIT         ?XD?SENSORINIT?MAIN
            XDATA   11F7H     0004H     UNIT         ?XD?SQRT?SQRT
            XDATA   11FBH     0004H     UNIT         ?XD?SIN?SIN
            XDATA   11FFH     0004H     UNIT         ?XD?ATAN?ATAN
            XDATA   1203H     0003H     UNIT         ?XD?_UART2SENDSTR?PW02
            XDATA   1206H     0003H     UNIT         ?XD?_PW02GETRXDATA?PW02
            XDATA   1209H     0003H     UNIT         ?XD?_PCF8563SETREGISTERBITS?PCF8563
            XDATA   120CH     0003H     UNIT         ?XD?_BME280GETSENSORDATA?BME280
            XDATA   120FH     0003H     UNIT         ?XD?_BME280SINGLEMEASUREMENT?BME280
            XDATA   1212H     0003H     UNIT         ?XD?_LSM6DSMRSETREGISTERBITS?LSM6DSM
            XDATA   1215H     0003H     UNIT         ?XD?_LSM6DSMENABLEPEDOMETER?LSM6DSM
            XDATA   1218H     0003H     UNIT         ?XD?_IMUUPDATE?LSM6DSM
            XDATA   121BH     0003H     UNIT         ?XD?BUZZER
            XDATA   121EH     0003H     UNIT         ?XD?_DISPLAYINIT?DISPLAY
            XDATA   1221H     0003H     UNIT         ?XD?_CLEARCACHE?DISPLAY
            XDATA   1224H     0002H     UNIT         ?XD?_PCF8563WRITETIME?PCF8563
            XDATA   1226H     0002H     UNIT         ?XD?_PCF8563ENABLETIMER?PCF8563
            XDATA   1228H     0002H     UNIT         ?XD?RESETMATRIX?ELLIPSOID_FITTING
            XDATA   122AH     0002H     UNIT         ?XD?CALCDATA_INPUT_AVERAGE?ELLIPSOID_FITTING
            XDATA   122CH     0002H     UNIT         ?XD?_LSM6DSMENABLEAWT?LSM6DSM
            XDATA   122EH     0002H     UNIT         ?XD?LSM6DSMINIT?LSM6DSM
            XDATA   1230H     0002H     UNIT         ?XD?_SINGLE_WRITEIIC?IIC
            XDATA   1232H     0002H     UNIT         ?XD?_SINGLE_READIIC?IIC
            XDATA   1234H     0001H     UNIT         ?XD?PW02CHECKCONNECTION?PW02
            XDATA   1235H     0001H     UNIT         ?XD?PW02INIT?PW02
            XDATA   1236H     0001H     UNIT         ?XD?BME280INIT?BME280
            XDATA   1237H     0001H     UNIT         ?XD?HMC5883L_INIT?HMC5883L
            XDATA   1238H     0001H     UNIT         ?XD?LSM6DSMGETCURRENTSTEP?LSM6DSM
            XDATA   1239H     0001H     UNIT         ?XD?SYSTEMPOWERDOWN?POWERMANAGE

            * * * * * * *   C O D E   M E M O R Y   * * * * * * *
            CODE    0000H     0003H     ABSOLUTE     
            CODE    0003H     0008H     UNIT         ?PR?_PCF8563READBYTE?PCF8563
            CODE    000BH     0003H     ABSOLUTE     
            CODE    000EH     0004H     UNIT         ?PR?MCUSOFTRESET?SYS
                    0012H     0001H                  *** GAP ***
            CODE    0013H     0003H     ABSOLUTE     
            CODE    0016H     002CH     UNIT         ?PR?SYSTEMPOWERDOWN?POWERMANAGE
                    0042H     0001H                  *** GAP ***
            CODE    0043H     0003H     ABSOLUTE     
            CODE    0046H     000DH     UNIT         ?PR?_HMC5883L_WRITE_BYTE?HMC5883L
BL51 BANKED LINKER/LOCATER V6.22                                                      06/27/2021  08:53:58  PAGE 5


            CODE    0053H     0003H     ABSOLUTE     
            CODE    0056H     0004H     UNIT         ?PR?ENABLEWATCHDOG?SYS
                    005AH     0001H                  *** GAP ***
            CODE    005BH     0003H     ABSOLUTE     
            CODE    005EH     003DH     UNIT         ?PR?_UART2SENDSTR?PW02
            CODE    009BH     0003H     ABSOLUTE     
            CODE    009EH     0004H     UNIT         ?PR?FEEDWATCHDOG?SYS
                    00A2H     0001H                  *** GAP ***
            CODE    00A3H     0003H     ABSOLUTE     
            CODE    00A6H     1F4BH     UNIT         ?CO?MAIN
            CODE    1FF1H     0E7CH     UNIT         ?C?LIB_CODE
            CODE    2E6DH     0DC6H     UNIT         ?C_INITSEG
            CODE    3C33H     0C4AH     UNIT         ?CO?DISPLAY
            CODE    487DH     0872H     UNIT         ?PR?_IMUUPDATE?LSM6DSM
            CODE    50EFH     0483H     UNIT         ?PR?PRINTF?PRINTF
            CODE    5572H     03FDH     UNIT         ?PR?_SCREENPUSHANIMATION?DISPLAY
            CODE    596FH     03B9H     UNIT         ?PR?COMPENSATE_PRESSURE?BME280
            CODE    5D28H     037FH     UNIT         ?PR?_ELLIPSOID_FITTING_PROCESS?ELLIPSOID_FITTING
            CODE    60A7H     0340H     UNIT         ?PR?_SHOWSTRING?DISPLAY
            CODE    63E7H     0282H     UNIT         ?PR?_DRAWLINE?DISPLAY
            CODE    6669H     026AH     UNIT         ?PR?_DISPLAYTIME?DISPLAY
            CODE    68D3H     0252H     UNIT         ?PR?COMPENSATE_HUMIDITY?BME280
            CODE    6B25H     0240H     UNIT         ?PR?_HMC5883L_GET_ANGLEXY?HMC5883L
            CODE    6D65H     01FEH     UNIT         ?PR?_DRAWARM?DISPLAY
            CODE    6F63H     01F2H     UNIT         ?PR?_DRAWSELECTIONFRAME?DISPLAY
            CODE    7155H     01EBH     UNIT         ?PR?_BMPTOCACHE?DISPLAY
            CODE    7340H     01DBH     UNIT         ?PR?COMPENSATE_TEMPERATURE?BME280
            CODE    751BH     018CH     UNIT         ?PR?_MATRIX_SOLVE?ELLIPSOID_FITTING
            CODE    76A7H     0188H     UNIT         ?PR?SIN?SIN
            CODE    782FH     0181H     UNIT         ?PR?GETBATTERYLIFE?POWERMANAGE
            CODE    79B0H     0180H     UNIT         ?PR?BME280READCOMPENSATIONPARAMETER?BME280
            CODE    7B30H     0173H     UNIT         ?PR?_CALCDATA_INPUT?ELLIPSOID_FITTING
            CODE    7CA3H     014BH     UNIT         ?PR?_READ_HMC5883L?HMC5883L
            CODE    7DEEH     012BH     UNIT         ?PR?_SCREEROLLDOWN?DISPLAY
            CODE    7F19H     0122H     UNIT         ?PR?ATAN?ATAN
            CODE    803BH     0120H     UNIT         ?PR?PW02INIT?PW02
            CODE    815BH     011FH     UNIT         ?PR?TM3_IST?MAIN
            CODE    827AH     011AH     UNIT         ?PR?SENSORINIT?MAIN
            CODE    8394H     0109H     UNIT         ?PR?MATRIX_GAUSSELIMINATION?ELLIPSOID_FITTING
            CODE    849DH     0105H     UNIT         ?PR?_PCF8563READTIME?PCF8563
            CODE    85A2H     0102H     UNIT         ?PR?BREATHINGLAMP?MAIN
            CODE    86A4H     00FEH     UNIT         ?PR?BME280_CAL_MEAS_DELAY?BME280
            CODE    87A2H     00EAH     UNIT         ?PR?_ROW2_SWOP_ROW1?ELLIPSOID_FITTING
            CODE    888CH     00D8H     UNIT         ?PR?BME280READSENSORRAWDATA?BME280
            CODE    8964H     00D7H     UNIT         ?PR?PW02CHECKCONNECTION?PW02
            CODE    8A3BH     00D5H     UNIT         ?PR?GETBATTERYVOLTAGE?POWERMANAGE
            CODE    8B10H     00C2H     UNIT         ?PR?_PCF8563SETALARM?PCF8563
            CODE    8BD2H     00BEH     UNIT         ?CO?PW02
            CODE    8C90H     00B3H     UNIT         ?PR?_LSM6DSMREADGYRANDACC?LSM6DSM
            CODE    8D43H     00AFH     UNIT         ?PR?_RDA5807MSETFQ?RDA5807M
            CODE    8DF2H     00AFH     UNIT         ?PR?_EEPROMREADCONFIGURATION?SYS
            CODE    8EA1H     00ACH     UNIT         ?PR?SQRT?SQRT
            CODE    8F4DH     00ABH     UNIT         ?PR?_RDA5807MSEEK?RDA5807M
            CODE    8FF8H     00A7H     UNIT         ?PR?_ROW2_ADD_KROW1?ELLIPSOID_FITTING
            CODE    909FH     00A1H     UNIT         ?PR?OLED_INIT?OLED
            CODE    9140H     009DH     UNIT         ?PR?_ATAN2?ATAN2
            CODE    91DDH     0099H     UNIT         ?PR?_MOVEBIGGESTELEMENT_TO_TOP?ELLIPSOID_FITTING
BL51 BANKED LINKER/LOCATER V6.22                                                      06/27/2021  08:53:58  PAGE 6


            CODE    9276H     0099H     UNIT         ?PR?_LSM6DSMENABLEAWT?LSM6DSM
            CODE    930FH     0099H     UNIT         ?PR?TM4_ISR?BUZZER
            CODE    93A8H     008CH     UNIT         ?C_C51STARTUP
            CODE    9434H     0080H     UNIT         ?PR?CALCDATA_INPUT_AVERAGE?ELLIPSOID_FITTING
            CODE    94B4H     007DH     UNIT         ?PR?_CLEARCACHEAREA?DISPLAY
            CODE    9531H     007AH     UNIT         ?PR?UART2_ISR?PW02
            CODE    95ABH     0077H     UNIT         ?PR?_PW02SETNAME?PW02
            CODE    9622H     0075H     UNIT         ?PR?_EEPROMWRITECONFIGURATION?SYS
            CODE    9697H     006FH     UNIT         ?PR?_I2C_READ_MULTIBYTES?IIC
            CODE    9706H     006DH     UNIT         ?PR?_SENDATCOMMAND?PW02
            CODE    9773H     006CH     UNIT         ?PR?MATRIX_ROWSIMPLIFY?ELLIPSOID_FITTING
            CODE    97DFH     006BH     UNIT         ?PR?_STRCAT?STRCAT
            CODE    984AH     0067H     UNIT         ?PR?RDA5807MINIT?RDA5807M
            CODE    98B1H     0065H     UNIT         ?PR?_PCF8563WRITEDATE?PCF8563
            CODE    9916H     0063H     UNIT         ?PR?_PW02SETADVT?PW02
            CODE    9979H     0062H     UNIT         ?PR?RDA5807MREADRGES?RDA5807M
            CODE    99DBH     0061H     UNIT         ?PR?_K_MUILTPLY_ROW?ELLIPSOID_FITTING
            CODE    9A3CH     0061H     UNIT         ?PR?_SCREENREFRESHAREA?DISPLAY
            CODE    9A9DH     005EH     UNIT         ?PR?_PW02SETBUAD?PW02
            CODE    9AFBH     005BH     UNIT         ?PR?_ABS?ELLIPSOID_FITTING
            CODE    9B56H     005AH     UNIT         ?PR?RDA5807MWRITEREGS?RDA5807M
            CODE    9BB0H     005AH     UNIT         ?PR?LSM6DSMINIT?LSM6DSM
            CODE    9C0AH     0058H     UNIT         ?PR?BME280INIT?BME280
            CODE    9C62H     0055H     UNIT         ?PR?HMC5883L_INIT?HMC5883L
            CODE    9CB7H     0055H     UNIT         ?PR?_DRAWDOT?DISPLAY
            CODE    9D0CH     0054H     UNIT         ?PR?_I2C_NOADDR_WRITE_MULTIBYTES?IIC
            CODE    9D60H     0052H     UNIT         ?PR?_DISPLAYINIT?DISPLAY
            CODE    9DB2H     0050H     UNIT         ?PR?INT1_ISR?MAIN
            CODE    9E02H     004DH     UNIT         ?PR?_PCF8563WRITETIME?PCF8563
            CODE    9E4FH     004AH     UNIT         ?PR?_OLED_DRAWBMP?OLED
            CODE    9E99H     004AH     UNIT         ?PR?_LSM6DSMENABLEPEDOMETER?LSM6DSM
            CODE    9EE3H     0047H     UNIT         ?PR?_BME280GETSENSORDATA?BME280
            CODE    9F2AH     0046H     UNIT         ?PR?RDA5807MGETCURRENTFQ?RDA5807M
            CODE    9F70H     0046H     UNIT         ?PR?RESETMATRIX?ELLIPSOID_FITTING
            CODE    9FB6H     0045H     UNIT         ?PR?_EEPROM_READ_N?EEPROM
            CODE    9FFBH     0045H     UNIT         ?PR?_EEPROM_WRITE_N?EEPROM
            CODE    A040H     0044H     UNIT         ?PR?_HMC5883L_SET_CALIBRATION_VALUE?HMC5883L
            CODE    A084H     0044H     UNIT         ?PR?_I2C_NOADDR_READ_MULTIBYTES?IIC
            CODE    A0C8H     0044H     UNIT         ?C?LDIV
            CODE    A10CH     003CH     UNIT         ?PR?_CLEARCACHE?DISPLAY
            CODE    A148H     003BH     UNIT         ?PR?ASIN?ASIN
            CODE    A183H     003AH     UNIT         ?PR?_PCF8563SETREGISTERBITS?PCF8563
            CODE    A1BDH     003AH     UNIT         ?PR?_LSM6DSMRSETREGISTERBITS?LSM6DSM
            CODE    A1F7H     003AH     UNIT         ?PR?_SINGLE_READIIC?IIC
            CODE    A231H     0039H     UNIT         ?PR?RDA5807MGETCURRENTRSSI?RDA5807M
            CODE    A26AH     0039H     UNIT         ?PR?BUZZERINIT?BUZZER
            CODE    A2A3H     0037H     UNIT         ?PR?_PCF8563ENABLETIMER?PCF8563
            CODE    A2DAH     0032H     UNIT         ?PR?SAVESCREEN?DISPLAY
            CODE    A30CH     0030H     UNIT         ?PR?SYSINIT?SYS
            CODE    A33CH     002EH     UNIT         ?PR?_PW02GETRXDATA?PW02
            CODE    A36AH     002CH     UNIT         ?PR?PININIT?SYS
            CODE    A396H     002BH     UNIT         ?PR?SYSTEMDEEPPOWERDOWN?POWERMANAGE
            CODE    A3C1H     0029H     UNIT         ?PR?_SINGLE_WRITEIIC?IIC
            CODE    A3EAH     0028H     UNIT         ?PR?PW02ENTERATMODE?PW02
            CODE    A412H     0028H     UNIT         ?PR?PW02EXITATMODE?PW02
            CODE    A43AH     0028H     UNIT         ?PR?_RDA5807MSETVOLUME?RDA5807M
            CODE    A462H     0027H     UNIT         ?PR?PW02GETRSSI?PW02
BL51 BANKED LINKER/LOCATER V6.22                                                      06/27/2021  08:53:58  PAGE 7


            CODE    A489H     0027H     UNIT         ?PR?_BME280WRITEBYTE?BME280
            CODE    A4B0H     0027H     UNIT         ?PR?LSM6DSMENABLETAPDETECTION?LSM6DSM
            CODE    A4D7H     0027H     UNIT         ?PR?PUTCHAR?PUTCHAR
            CODE    A4FEH     0026H     UNIT         ?PR?_EEPROM_SECTORERASE?EEPROM
            CODE    A524H     0025H     UNIT         ?PR?PCF8563DISABLEALARM?PCF8563
            CODE    A549H     0024H     UNIT         ?PR?_BME280SINGLEMEASUREMENT?BME280
            CODE    A56DH     0024H     UNIT         ?PR?KEYSCAN?MAIN
            CODE    A591H     0022H     UNIT         ?PR?WAIT?IIC
            CODE    A5B3H     0022H     UNIT         ?PR?I2C_STOP?IIC
            CODE    A5D5H     0022H     UNIT         ?PR?INT2_ISR?MAIN
            CODE    A5F7H     0020H     UNIT         ?CO?ELLIPSOID_FITTING
            CODE    A617H     001FH     UNIT         ?PR?OLED_CLEAR?OLED
            CODE    A636H     001EH     UNIT         ?PR?_OLED_SET_POS?OLED
            CODE    A654H     001EH     UNIT         ?PR?_BME280SETMODE?BME280
            CODE    A672H     001BH     UNIT         ?PR?_ADCREAD?POWERMANAGE
            CODE    A68DH     001BH     UNIT         ?PR?TM0_ISR?MAIN
            CODE    A6A8H     001AH     UNIT         ?PR?_OLED_WR_BYTE?OLED
            CODE    A6C2H     001AH     UNIT         ?PR?_DELAY1MS?DELAY
            CODE    A6DCH     0019H     UNIT         ?PR?_DELAY_MS?OLED
            CODE    A6F5H     0019H     UNIT         ?PR?LSM6DSMGETCURRENTSTEP?LSM6DSM
            CODE    A70EH     0019H     UNIT         ?PR?LSM6DSMRESETSTEPCOUNTER?LSM6DSM
            CODE    A727H     0019H     UNIT         ?PR?UARTINIT?SYS
            CODE    A740H     0017H     UNIT         ?PR?_SCREENSETDIRECTION?DISPLAY
            CODE    A757H     0015H     UNIT         ?PR?_PCF8563WRITEBYTE?PCF8563
            CODE    A76CH     0015H     UNIT         ?PR?_BME280CONTINUOUSMEASUREMENT?BME280
            CODE    A781H     0015H     UNIT         ?PR?_BUZZERONOFF?BUZZER
            CODE    A796H     0015H     UNIT         ?PR?BEE?BUZZER
            CODE    A7ABH     0015H     UNIT         ?PR?_DELAY1US?DELAY
            CODE    A7C0H     0013H     UNIT         ?PR?UART2INIT?SYS
            CODE    A7D3H     0012H     UNIT         ?PR?PCF8563DISABLETIMER?PCF8563
            CODE    A7E5H     0012H     UNIT         ?PR?IIC_INIT?IIC
            CODE    A7F7H     0011H     UNIT         ?PR?OLED_DISPLAY_ON?OLED
            CODE    A808H     0011H     UNIT         ?PR?_OLED_HORIZENTAL_REVERSE?OLED
            CODE    A819H     0011H     UNIT         ?PR?_OLED_VERTICAL_REVERSE?OLED
            CODE    A82AH     0011H     UNIT         ?PR?_OLED_INVERSE?OLED
            CODE    A83BH     0011H     UNIT         ?PR?I2C_START?IIC
            CODE    A84CH     0010H     UNIT         ?PR?_PCF8563ENABLECLOCKOUPUT?PCF8563
            CODE    A85CH     0010H     UNIT         ?PR?CHECKHMC5883LCONNECTION?HMC5883L
            CODE    A86CH     0010H     UNIT         ?PR?LSM6DSMSOFTRESET?LSM6DSM
            CODE    A87CH     0010H     UNIT         ?PR?TIMER3INIT?SYS
            CODE    A88CH     000FH     UNIT         ?PR?LSM6DSMCHECKCONNECTION?LSM6DSM
            CODE    A89BH     000FH     UNIT         ?PR?I2C_RECVHYTE?IIC
            CODE    A8AAH     000FH     UNIT         ?PR?I2C_SENDNAK?IIC
            CODE    A8B9H     000FH     UNIT         ?PR?BEEBEEBEE?BUZZER
            CODE    A8C8H     000EH     UNIT         ?PR?_OLED_SET_BRIGHTNESS?OLED
            CODE    A8D6H     000EH     UNIT         ?PR?BME280CHECKCONNECTION?BME280
            CODE    A8E4H     000EH     UNIT         ?PR?BME280SOFTRESET?BME280
            CODE    A8F2H     000EH     UNIT         ?PR?_I2D_SENDBYTE?IIC
            CODE    A900H     000EH     UNIT         ?PR?I2C_SENDACK?IIC
            CODE    A90EH     000EH     UNIT         ?PR?DISABLEEEPROM?EEPROM
            CODE    A91CH     000DH     UNIT         ?PR?_LSM6DSMWRITEBYTE?LSM6DSM
            CODE    A929H     000DH     UNIT         ?PR?_BATTERYCHARGEENABLE?POWERMANAGE
            CODE    A936H     000DH     UNIT         ?PR?TIMER0INIT?SYS
            CODE    A943H     000DH     UNIT         ?PR?MAIN?MAIN
            CODE    A950H     000CH     UNIT         ?PR?OLED_DISPLAY_OFF?OLED
            CODE    A95CH     000CH     UNIT         ?PR?SYSTEMPOWERON?POWERMANAGE
            CODE    A968H     000CH     UNIT         ?PR?INITCONFIG?SYS
BL51 BANKED LINKER/LOCATER V6.22                                                      06/27/2021  08:53:58  PAGE 8


            CODE    A974H     000BH     UNIT         ?PR?_HMC5883L_SET_MODE?HMC5883L
            CODE    A97FH     000BH     UNIT         ?PR?_SCREENSETBRIGHTNESS?DISPLAY
            CODE    A98AH     000AH     UNIT         ?PR?_PW02SETMODE?PW02
            CODE    A994H     000AH     UNIT         ?PR?RDA5807MSETMUTE?RDA5807M
            CODE    A99EH     000AH     UNIT         ?PR?RDA5807MPOWERUP?RDA5807M
            CODE    A9A8H     000AH     UNIT         ?PR?RDA5807MPOWERDOWN?RDA5807M
            CODE    A9B2H     000AH     UNIT         ?PR?PCF8563READINTSRC?PCF8563
            CODE    A9BCH     000AH     UNIT         ?PR?_SCREENONOFF?DISPLAY
            CODE    A9C6H     0009H     UNIT         ?PR?PW02REST?PW02
            CODE    A9CFH     0009H     UNIT         ?PR?PCF8563CLEARALARMFLAG?PCF8563
            CODE    A9D8H     0009H     UNIT         ?PR?PCF8563CLEARTIMERFLAG?PCF8563
            CODE    A9E1H     0009H     UNIT         ?PR?LSM6DSMENABLEEMBEDDEDFUNC?LSM6DSM
            CODE    A9EAH     0009H     UNIT         ?PR?LSM6DSMDISABLEPEDOMETER?LSM6DSM
            CODE    A9F3H     0009H     UNIT         ?PR?I2C_RECVACK?IIC
            CODE    A9FCH     0009H     UNIT         ?PR?_ENABLEBUZZER?BUZZER
            CODE    AA05H     0008H     UNIT         ?PR?_BME280READBYTE?BME280
            CODE    AA0DH     0008H     UNIT         ?PR?_HMC5883L_READ_BYTE?HMC5883L
            CODE    AA15H     0008H     UNIT         ?PR?_LSM6DSMREADBYTE?LSM6DSM
            CODE    AA1DH     0008H     UNIT         ?PR?_LSM6DSMCONFIGACC?LSM6DSM
            CODE    AA25H     0008H     UNIT         ?PR?_LSM6DSMCONFIGGYR?LSM6DSM
            CODE    AA2DH     0008H     UNIT         ?PR?_LED?SYS
            CODE    AA35H     0007H     UNIT         ?PR?PCF8563INIT?PCF8563
            CODE    AA3CH     0007H     UNIT         ?PR?ADCINIT?POWERMANAGE
            CODE    AA43H     0006H     UNIT         ?CO?BME280
            CODE    AA49H     0006H     UNIT         ?PR?_ENABLE3V3OUTPUT?POWERMANAGE
            CODE    AA4FH     0003H     UNIT         ?PR?_SCREENREFRESHALL?DISPLAY
            CODE    AA52H     0003H     UNIT         ?PR?_SCREENSETINVERSE?DISPLAY
            CODE    AA55H     0003H     UNIT         ?PR?INT3_ISR?MAIN
            CODE    AA58H     0003H     UNIT         ?PR?LED1_ON?MAIN
            CODE    AA5BH     0003H     UNIT         ?PR?LED1_OFF?MAIN



OVERLAY MAP OF MODULE:   ..\Objects\iWatch-v1.1 (PW02)


SEGMENT                                            XDATA_GROUP
  +--> CALLED SEGMENT                            START    LENGTH
----------------------------------------------------------------
?PR?TM4_ISR?BUZZER                               -----    -----
  +--> ?PR?_BUZZERONOFF?BUZZER

*** NEW ROOT ***************************************************

?PR?TM3_IST?MAIN                                 -----    -----
  +--> ?PR?MCUSOFTRESET?SYS
  +--> ?PR?KEYSCAN?MAIN
  +--> ?PR?BEE?BUZZER
  +--> ?PR?_LED?SYS

?PR?BEE?BUZZER                                   -----    -----
  +--> ?PR?_BUZZERONOFF?BUZZER

*** NEW ROOT ***************************************************

?PR?INT1_ISR?MAIN                                -----    -----
  +--> ?PR?BEE?BUZZER
BL51 BANKED LINKER/LOCATER V6.22                                                      06/27/2021  08:53:58  PAGE 9


  +--> ?PR?_SCREENONOFF?DISPLAY

?PR?_SCREENONOFF?DISPLAY                         -----    -----
  +--> ?PR?OLED_DISPLAY_ON?OLED
  +--> ?PR?OLED_DISPLAY_OFF?OLED

?PR?OLED_DISPLAY_ON?OLED                         -----    -----
  +--> ?PR?_OLED_WR_BYTE?OLED

?PR?OLED_DISPLAY_OFF?OLED                        -----    -----
  +--> ?PR?_OLED_WR_BYTE?OLED

*** NEW ROOT ***************************************************

?C_C51STARTUP                                    -----    -----
  +--> ?PR?MAIN?MAIN
  +--> ?C_INITSEG

?PR?MAIN?MAIN                                    -----    -----
  +--> ?PR?FEEDWATCHDOG?SYS
  +--> ?PR?BREATHINGLAMP?MAIN

?PR?BREATHINGLAMP?MAIN                           11BCH    0006H
  +--> ?PR?LED1_ON?MAIN
  +--> ?PR?LED1_OFF?MAIN
  +--> ?PR?_DELAY1US?DELAY



UNRESOLVED EXTERNAL SYMBOLS:
   I2C_RECVBYTE
   _I2C_SENDBYTE
   _SCREEROLLUP



SYMBOL TABLE OF MODULE:  ..\Objects\iWatch-v1.1 (PW02)

  VALUE           TYPE          NAME
  ----------------------------------

  -------         MODULE        PW02
  C:0000H         SYMBOL        _ICE_DUMMY_
  C:9531H         PUBLIC        UART2_Isr
  D:0080H         PUBLIC        P0
  D:0090H         PUBLIC        P1
  D:00A0H         PUBLIC        P2
  D:00B0H         PUBLIC        P3
  C:8964H         PUBLIC        PW02CheckConnection
  D:00C0H         PUBLIC        P4
  D:00C8H         PUBLIC        P5
  D:00E8H         PUBLIC        P6
  D:00F8H         PUBLIC        P7
  X:0DAAH         PUBLIC        rx_buf
  D:00A8H         PUBLIC        IE
  C:005EH         PUBLIC        _Uart2SendStr
  D:00B8H         PUBLIC        IP
BL51 BANKED LINKER/LOCATER V6.22                                                      06/27/2021  08:53:58  PAGE 10


  C:803BH         PUBLIC        PW02Init
  D:00D8H         PUBLIC        CCON
  C:A3EAH         PUBLIC        PW02EnterATMode
  C:A9C6H         PUBLIC        PW02Rest
  D:0098H         PUBLIC        SCON
  D:0088H         PUBLIC        TCON
  C:9A9DH         PUBLIC        _PW02SetBuad
  B:0090H.6       PUBLIC        P16
  C:95ABH         PUBLIC        _PW02SetName
  C:A98AH         PUBLIC        _PW02SetMode
  C:8C58H         SYMBOL        _?ix1000
  C:8C64H         SYMBOL        _?ix1001
  C:8C74H         SYMBOL        _?ix1002
  B:0023H.1       PUBLIC        busy
  C:A412H         PUBLIC        PW02ExitATMode
  D:009BH         PUBLIC        S2BUF
  B:0023H.2       PUBLIC        receive_flag
  B:0090H.6       PUBLIC        PW02_SLEEP
  C:970CH         PUBLIC        _SendATCommand
  D:009AH         PUBLIC        S2CON
  C:9916H         PUBLIC        _PW02SetADVT
  C:A462H         PUBLIC        PW02GetRSSI
  C:A33CH         PUBLIC        _PW02GetRxData
  X:0E2AH         PUBLIC        rx_count
  D:00D0H         PUBLIC        PSW
  -------         PROC          _UART2SENDSTR
  X:1203H         SYMBOL        p
  C:005EH         LINE#         16
  C:0069H         LINE#         17
  C:0069H         LINE#         18
  C:0079H         LINE#         19
  C:0079H         LINE#         20
  C:007CH         LINE#         21
  C:007EH         LINE#         22
  C:0093H         LINE#         23
  C:0095H         LINE#         24
  C:009AH         LINE#         25
  -------         ENDPROC       _UART2SENDSTR
  -------         PROC          UART2_ISR
  C:9531H         LINE#         26
  C:953CH         LINE#         28
  C:9541H         LINE#         29
  C:9541H         LINE#         30
  C:9544H         LINE#         31
  C:9546H         LINE#         32
  C:9546H         LINE#         33
  C:954BH         LINE#         34
  C:954BH         LINE#         35
  C:954EH         LINE#         36
  C:9562H         LINE#         37
  C:9574H         LINE#         38
  C:9574H         LINE#         39
  C:9585H         LINE#         40
  C:958FH         LINE#         42
  C:959BH         LINE#         43
  C:959DH         LINE#         44
  C:95A2H         LINE#         45
BL51 BANKED LINKER/LOCATER V6.22                                                      06/27/2021  08:53:58  PAGE 11


  C:95A2H         LINE#         46
  C:95A2H         LINE#         47
  -------         ENDPROC       UART2_ISR
  -------         PROC          _PW02GETRXDATA
  X:1206H         SYMBOL        buf
  C:A33CH         LINE#         48
  C:A347H         LINE#         49
  C:A347H         LINE#         50
  C:A34AH         LINE#         51
  C:A34AH         LINE#         52
  C:A34CH         LINE#         53
  C:A364H         LINE#         54
  C:A367H         LINE#         55
  C:A367H         LINE#         57
  C:A369H         LINE#         58
  -------         ENDPROC       _PW02GETRXDATA
  C:9708H         SYMBOL        L?0054
  -------         PROC          L?0053
  -------         ENDPROC       L?0053
  C:9708H         SYMBOL        L?0054
  -------         PROC          _SENDATCOMMAND
  X:1118H         SYMBOL        command
  X:111BH         SYMBOL        retry_times
  X:111DH         SYMBOL        expected_response
  X:1120H         SYMBOL        response_len
  C:970CH         LINE#         59
  C:971FH         LINE#         60
  C:971FH         LINE#         61
  C:9721H         LINE#         62
  C:9721H         LINE#         63
  C:9723H         LINE#         64
  C:9726H         LINE#         65
  C:9726H         LINE#         66
  C:9734H         LINE#         67
  C:9736H         LINE#         68
  C:9744H         LINE#         69
  C:974BH         LINE#         70
  C:974DH         LINE#         71
  C:974FH         LINE#         72
  C:976DH         LINE#         73
  C:9770H         LINE#         75
  C:9772H         LINE#         76
  -------         ENDPROC       _SENDATCOMMAND
  -------         PROC          PW02ENTERATMODE
  C:A3EAH         LINE#         77
  C:A3EAH         LINE#         78
  C:A3EAH         LINE#         79
  C:A40CH         LINE#         80
  C:A40FH         LINE#         82
  C:A411H         LINE#         83
  -------         ENDPROC       PW02ENTERATMODE
  -------         PROC          PW02EXITATMODE
  C:A412H         LINE#         84
  C:A412H         LINE#         85
  C:A412H         LINE#         86
  C:A434H         LINE#         87
  C:A437H         LINE#         89
BL51 BANKED LINKER/LOCATER V6.22                                                      06/27/2021  08:53:58  PAGE 12


  C:A439H         LINE#         90
  -------         ENDPROC       PW02EXITATMODE
  -------         PROC          _PW02SETBUAD
  X:10DFH         SYMBOL        baud_num
  -------         DO            
  X:10E0H         SYMBOL        str
  -------         ENDDO         
  C:9A9DH         LINE#         91
  C:9AA2H         LINE#         92
  C:9AA2H         LINE#         93
  C:9AB5H         LINE#         94
  C:9AD9H         LINE#         95
  C:9AF5H         LINE#         96
  C:9AF8H         LINE#         98
  C:9AFAH         LINE#         99
  -------         ENDPROC       _PW02SETBUAD
  -------         PROC          _PW02SETADVT
  X:109EH         SYMBOL        time_in_ms
  -------         DO            
  X:10A0H         SYMBOL        str
  -------         ENDDO         
  C:9916H         LINE#         100
  C:991EH         LINE#         101
  C:991EH         LINE#         102
  C:9931H         LINE#         103
  C:9957H         LINE#         104
  C:9973H         LINE#         105
  C:9976H         LINE#         107
  C:9978H         LINE#         108
  -------         ENDPROC       _PW02SETADVT
  -------         PROC          _PW02SETNAME
  X:0FFCH         SYMBOL        name
  -------         DO            
  X:0FFFH         SYMBOL        str
  -------         ENDDO         
  C:95ABH         LINE#         109
  C:95B6H         LINE#         110
  C:95B6H         LINE#         111
  C:95C9H         LINE#         112
  C:95E7H         LINE#         113
  C:95FEH         LINE#         114
  C:961CH         LINE#         115
  C:961FH         LINE#         117
  C:9621H         LINE#         118
  -------         ENDPROC       _PW02SETNAME
  -------         PROC          PW02GETRSSI
  C:A462H         LINE#         119
  C:A462H         LINE#         120
  C:A462H         LINE#         121
  C:A483H         LINE#         122
  C:A486H         LINE#         124
  C:A488H         LINE#         125
  -------         ENDPROC       PW02GETRSSI
  -------         PROC          PW02REST
  C:A9C6H         LINE#         126
  C:A9C6H         LINE#         127
  C:A9C6H         LINE#         128
BL51 BANKED LINKER/LOCATER V6.22                                                      06/27/2021  08:53:58  PAGE 13


  -------         ENDPROC       PW02REST
  -------         PROC          _PW02SETMODE
  D:0007H         SYMBOL        mode
  C:A98AH         LINE#         130
  C:A98AH         LINE#         131
  C:A98AH         LINE#         132
  C:A98EH         LINE#         133
  C:A991H         LINE#         135
  C:A993H         LINE#         136
  -------         ENDPROC       _PW02SETMODE
  -------         PROC          PW02CHECKCONNECTION
  -------         DO            
  X:1234H         SYMBOL        y
  -------         ENDDO         
  C:8964H         LINE#         137
  C:8964H         LINE#         138
  C:8964H         LINE#         139
  C:8969H         LINE#         140
  C:896BH         LINE#         141
  C:8971H         LINE#         142
  C:897AH         LINE#         143
  C:897DH         LINE#         144
  C:89A9H         LINE#         145
  C:89B2H         LINE#         146
  C:89B2H         LINE#         147
  C:89DBH         LINE#         148
  C:89DEH         LINE#         149
  C:8A0BH         LINE#         150
  C:8A0EH         LINE#         151
  C:8A0EH         LINE#         153
  C:8A0EH         LINE#         154
  C:8A38H         LINE#         155
  C:8A3AH         LINE#         156
  C:8A3AH         LINE#         157
  -------         ENDPROC       PW02CHECKCONNECTION
  -------         PROC          PW02INIT
  -------         DO            
  X:1235H         SYMBOL        y
  -------         ENDDO         
  C:803BH         LINE#         158
  C:803BH         LINE#         159
  C:803BH         LINE#         160
  C:8040H         LINE#         161
  C:8042H         LINE#         164
  C:8044H         LINE#         165
  C:804AH         LINE#         166
  C:8050H         LINE#         167
  C:807FH         LINE#         169
  C:8082H         LINE#         170
  C:8087H         LINE#         171
  C:80B4H         LINE#         172
  C:80BDH         LINE#         173
  C:80EAH         LINE#         174
  C:80F1H         LINE#         175
  C:811EH         LINE#         176
  C:8124H         LINE#         177
  C:8153H         LINE#         179
BL51 BANKED LINKER/LOCATER V6.22                                                      06/27/2021  08:53:58  PAGE 14


  C:8156H         LINE#         180
  C:8158H         LINE#         181
  C:815AH         LINE#         182
  -------         ENDPROC       PW02INIT
  -------         ENDMOD        PW02

  -------         MODULE        OLED
  C:0000H         SYMBOL        _ICE_DUMMY_
  C:A7F7H         PUBLIC        OLED_Display_On
  B:0090H.2       PUBLIC        OLED_RST
  D:0080H         PUBLIC        P0
  D:0090H         PUBLIC        P1
  D:00A0H         PUBLIC        P2
  D:00B0H         PUBLIC        P3
  D:00C0H         PUBLIC        P4
  D:00C8H         PUBLIC        P5
  D:00E8H         PUBLIC        P6
  C:A819H         PUBLIC        _OLED_Vertical_Reverse
  D:00F8H         PUBLIC        P7
  B:0090H.3       PUBLIC        OLED_DC
  D:00A8H         PUBLIC        IE
  D:00B8H         PUBLIC        IP
  C:909FH         PUBLIC        OLED_Init
  B:00C0H.4       PUBLIC        OLED_RD
  D:00D8H         PUBLIC        CCON
  C:A6B2H         PUBLIC        _OLED_WR_Byte
  B:00C0H.3       PUBLIC        OLED_WR
  C:A8C8H         PUBLIC        _OLED_Set_Brightness
  D:0098H         PUBLIC        SCON
  D:0088H         PUBLIC        TCON
  C:A636H         PUBLIC        _OLED_Set_Pos
  C:A6DCH         PUBLIC        _delay_ms
  C:A950H         PUBLIC        OLED_Display_Off
  C:A82AH         PUBLIC        _OLED_Inverse
  C:A808H         PUBLIC        _OLED_Horizental_Reverse
  C:A617H         PUBLIC        OLED_Clear
  C:9E4FH         PUBLIC        _OLED_DrawBMP
  D:00D0H         PUBLIC        PSW
  -------         PROC          _DELAY_MS
  D:0006H         SYMBOL        ms
  -------         DO            
  D:0005H         SYMBOL        i
  D:0004H         SYMBOL        j
  -------         ENDDO         
  C:A6DCH         LINE#         12
  C:A6DCH         LINE#         13
  C:A6DCH         LINE#         15
  C:A6E5H         LINE#         16
  C:A6E5H         LINE#         17
  C:A6E7H         LINE#         18
  C:A6E9H         LINE#         20
  C:A6E9H         LINE#         21
  C:A6EBH         LINE#         22
  C:A6EDH         LINE#         23
  C:A6F4H         LINE#         24
  -------         ENDPROC       _DELAY_MS
  C:A6ADH         SYMBOL        L?0046
BL51 BANKED LINKER/LOCATER V6.22                                                      06/27/2021  08:53:58  PAGE 15


  -------         PROC          L?0045
  -------         ENDPROC       L?0045
  C:A6ADH         SYMBOL        L?0046
  -------         PROC          _OLED_WR_BYTE
  D:0007H         SYMBOL        dat
  D:0005H         SYMBOL        cmd
  C:A6B2H         LINE#         30
  C:A6B2H         LINE#         31
  C:A6B2H         LINE#         33
  C:A6B5H         LINE#         34
  C:A6B9H         LINE#         36
  C:A6BBH         LINE#         37
  C:A6BDH         LINE#         38
  C:A6BFH         LINE#         39
  C:A6C1H         LINE#         41
  -------         ENDPROC       _OLED_WR_BYTE
  -------         PROC          _OLED_SET_POS
  D:0006H         SYMBOL        x
  D:0005H         SYMBOL        y
  C:A636H         LINE#         70
  C:A638H         LINE#         71
  C:A638H         LINE#         72
  C:A641H         LINE#         73
  C:A64DH         LINE#         74
  -------         ENDPROC       _OLED_SET_POS
  -------         PROC          OLED_DISPLAY_ON
  C:A7F7H         LINE#         78
  C:A7F7H         LINE#         79
  C:A7F7H         LINE#         80
  C:A7FEH         LINE#         81
  C:A803H         LINE#         82
  -------         ENDPROC       OLED_DISPLAY_ON
  -------         PROC          OLED_DISPLAY_OFF
  C:A950H         LINE#         85
  C:A950H         LINE#         86
  C:A950H         LINE#         87
  C:A954H         LINE#         88
  C:A957H         LINE#         89
  -------         ENDPROC       OLED_DISPLAY_OFF
  -------         PROC          _OLED_SET_BRIGHTNESS
  D:0006H         SYMBOL        brightness
  C:A8C8H         LINE#         91
  C:A8CAH         LINE#         92
  C:A8CAH         LINE#         93
  C:A8D1H         LINE#         94
  -------         ENDPROC       _OLED_SET_BRIGHTNESS
  -------         PROC          _OLED_HORIZENTAL_REVERSE
  D:0007H         SYMBOL        reverse
  C:A808H         LINE#         97
  C:A808H         LINE#         98
  C:A808H         LINE#         99
  C:A80BH         LINE#         100
  C:A811H         LINE#         102
  C:A818H         LINE#         103
  -------         ENDPROC       _OLED_HORIZENTAL_REVERSE
  -------         PROC          _OLED_VERTICAL_REVERSE
  D:0007H         SYMBOL        reverse
BL51 BANKED LINKER/LOCATER V6.22                                                      06/27/2021  08:53:58  PAGE 16


  C:A819H         LINE#         104
  C:A819H         LINE#         105
  C:A819H         LINE#         106
  C:A81CH         LINE#         107
  C:A822H         LINE#         109
  C:A829H         LINE#         110
  -------         ENDPROC       _OLED_VERTICAL_REVERSE
  -------         PROC          _OLED_INVERSE
  D:0007H         SYMBOL        k
  C:A82AH         LINE#         112
  C:A82AH         LINE#         113
  C:A82AH         LINE#         114
  C:A82DH         LINE#         115
  C:A833H         LINE#         117
  C:A83AH         LINE#         118
  -------         ENDPROC       _OLED_INVERSE
  -------         PROC          OLED_CLEAR
  -------         DO            
  D:0006H         SYMBOL        i
  D:0004H         SYMBOL        n
  -------         ENDDO         
  C:A617H         LINE#         119
  C:A617H         LINE#         120
  C:A617H         LINE#         122
  C:A619H         LINE#         123
  C:A619H         LINE#         124
  C:A61FH         LINE#         125
  C:A61FH         LINE#         126
  C:A622H         LINE#         127
  C:A624H         LINE#         128
  C:A630H         LINE#         129
  C:A635H         LINE#         130
  -------         ENDPROC       OLED_CLEAR
  -------         PROC          _OLED_DRAWBMP
  D:0001H         SYMBOL        buf
  -------         DO            
  D:0041H         SYMBOL        i
  D:0042H         SYMBOL        j
  D:0043H         SYMBOL        n
  -------         ENDDO         
  C:9E4FH         LINE#         131
  C:9E4FH         LINE#         132
  C:9E4FH         LINE#         135
  C:9E52H         LINE#         136
  C:9E52H         LINE#         137
  C:9E59H         LINE#         138
  C:9E5CH         LINE#         139
  C:9E61H         LINE#         140
  C:9E6CH         LINE#         141
  C:9E6FH         LINE#         142
  C:9E8FH         LINE#         143
  C:9E98H         LINE#         144
  -------         ENDPROC       _OLED_DRAWBMP
  -------         PROC          OLED_INIT
  C:909FH         LINE#         147
  C:909FH         LINE#         148
  C:909FH         LINE#         149
BL51 BANKED LINKER/LOCATER V6.22                                                      06/27/2021  08:53:58  PAGE 17


  C:90A1H         LINE#         150
  C:90A8H         LINE#         151
  C:90AAH         LINE#         152
  C:90B1H         LINE#         153
  C:90B3H         LINE#         154
  C:90B5H         LINE#         155
  C:90B9H         LINE#         156
  C:90B9H         LINE#         157
  C:90BCH         LINE#         158
  C:90C1H         LINE#         159
  C:90C6H         LINE#         160
  C:90CBH         LINE#         161
  C:90D0H         LINE#         162
  C:90D5H         LINE#         163
  C:90DAH         LINE#         164
  C:90DFH         LINE#         165
  C:90E4H         LINE#         166
  C:90E9H         LINE#         167
  C:90EEH         LINE#         168
  C:90F3H         LINE#         169
  C:90F8H         LINE#         170
  C:90FDH         LINE#         171
  C:9102H         LINE#         172
  C:9107H         LINE#         173
  C:910CH         LINE#         174
  C:9111H         LINE#         175
  C:9116H         LINE#         176
  C:911BH         LINE#         177
  C:9120H         LINE#         178
  C:9125H         LINE#         179
  C:912AH         LINE#         180
  C:912FH         LINE#         181
  C:9134H         LINE#         187
  C:9137H         LINE#         188
  C:913AH         LINE#         189
  -------         ENDPROC       OLED_INIT
  -------         ENDMOD        OLED

  -------         MODULE        RDA5807M
  C:0000H         SYMBOL        _ICE_DUMMY_
  D:0080H         PUBLIC        P0
  D:0090H         PUBLIC        P1
  D:00A0H         PUBLIC        P2
  D:00B0H         PUBLIC        P3
  D:00C0H         PUBLIC        P4
  C:A43AH         PUBLIC        _RDA5807MSetVOLUME
  D:00C8H         PUBLIC        P5
  D:00E8H         PUBLIC        P6
  D:00F8H         PUBLIC        P7
  D:00BAH         PUBLIC        P_SW2
  C:9979H         PUBLIC        RDA5807MReadRges
  D:00A8H         PUBLIC        IE
  C:984AH         PUBLIC        RDA5807MInit
  X:101CH         PUBLIC        BAND
  D:00B8H         PUBLIC        IP
  X:101DH         PUBLIC        CHAN
  C:9B5CH         PUBLIC        RDA5807MWriteRegs
BL51 BANKED LINKER/LOCATER V6.22                                                      06/27/2021  08:53:58  PAGE 18


  D:00D8H         PUBLIC        CCON
  C:8F4DH         PUBLIC        _RDA5807MSEEK
  C:A9A8H         PUBLIC        RDA5807MPowerDown
  D:0098H         PUBLIC        SCON
  D:0088H         PUBLIC        TCON
  C:9F2AH         PUBLIC        RDA5807MGetCurrentFq
  X:101FH         PUBLIC        current_frequency
  X:1023H         PUBLIC        REG02
  X:1025H         PUBLIC        RSSI
  X:1026H         PUBLIC        REG03
  X:1028H         PUBLIC        REG04
  X:102AH         PUBLIC        REG05
  X:102CH         PUBLIC        SEEKTH
  C:A994H         PUBLIC        RDA5807MSetMute
  C:A231H         PUBLIC        RDA5807MGetCurrentRSSI
  X:102DH         PUBLIC        REG0A
  X:102FH         PUBLIC        REG0B
  C:A99EH         PUBLIC        RDA5807MPowerUp
  X:1031H         PUBLIC        VOLUME
  C:8D43H         PUBLIC        _RDA5807MSetFq
  X:1032H         PUBLIC        SPACE
  D:00D0H         PUBLIC        PSW
  -------         PROC          L?0026
  -------         ENDPROC       L?0026
  -------         PROC          RDA5807MWRITEREGS
  -------         DO            
  X:1157H         SYMBOL        reg
  -------         ENDDO         
  C:9B5CH         LINE#         38
  C:9B5CH         LINE#         39
  C:9B5CH         LINE#         41
  C:9B69H         LINE#         42
  C:9B6CH         LINE#         43
  C:9B79H         LINE#         44
  C:9B7CH         LINE#         45
  C:9B89H         LINE#         46
  C:9B8CH         LINE#         47
  C:9B99H         LINE#         48
  C:9B9CH         LINE#         49
  C:9B9FH         LINE#         50
  C:9BACH         LINE#         51
  C:9BAFH         LINE#         52
  -------         ENDPROC       RDA5807MWRITEREGS
  -------         PROC          RDA5807MREADRGES
  -------         DO            
  X:11DBH         SYMBOL        read_buf
  -------         ENDDO         
  C:9979H         LINE#         61
  C:9979H         LINE#         62
  C:9979H         LINE#         64
  C:997CH         LINE#         65
  C:9989H         LINE#         66
  C:998CH         LINE#         67
  C:9999H         LINE#         68
  C:99A4H         LINE#         69
  C:99B3H         LINE#         70
  C:99C0H         LINE#         71
BL51 BANKED LINKER/LOCATER V6.22                                                      06/27/2021  08:53:58  PAGE 19


  C:99CBH         LINE#         72
  C:99DAH         LINE#         73
  -------         ENDPROC       RDA5807MREADRGES
  -------         PROC          RDA5807MINIT
  C:984AH         LINE#         81
  C:984AH         LINE#         82
  C:984AH         LINE#         84
  C:9851H         LINE#         85
  C:9854H         LINE#         86
  C:985BH         LINE#         88
  C:9864H         LINE#         89
  C:9894H         LINE#         90
  C:9899H         LINE#         91
  C:98ABH         LINE#         92
  C:98AEH         LINE#         93
  C:98B0H         LINE#         94
  -------         ENDPROC       RDA5807MINIT
  -------         PROC          _RDA5807MSETVOLUME
  D:0004H         SYMBOL        VOLUME
  C:A43AH         LINE#         100
  C:A43EH         LINE#         101
  C:A43EH         LINE#         102
  C:A447H         LINE#         103
  C:A44BH         LINE#         104
  C:A452H         LINE#         105
  C:A45FH         LINE#         106
  -------         ENDPROC       _RDA5807MSETVOLUME
  -------         PROC          _RDA5807MSEEK
  D:0005H         SYMBOL        direction
  -------         DO            
  X:101BH         SYMBOL        step
  -------         ENDDO         
  C:8F4DH         LINE#         115
  C:8F4FH         LINE#         116
  C:8F4FH         LINE#         118
  C:8F55H         LINE#         119
  C:8F55H         LINE#         120
  C:8F5CH         LINE#         121
  C:8F63H         LINE#         122
  C:8F6CH         LINE#         124
  C:8F70H         LINE#         125
  C:8F7AH         LINE#         126
  C:8F7DH         LINE#         128
  C:8F83H         LINE#         129
  C:8F85H         LINE#         130
  C:8F8DH         LINE#         131
  C:8F8DH         LINE#         132
  C:8F90H         LINE#         133
  C:8F97H         LINE#         134
  C:8F97H         LINE#         135
  C:8F9EH         LINE#         136
  C:8FB0H         LINE#         137
  C:8FD2H         LINE#         138
  C:8FDEH         LINE#         139
  C:8FE3H         LINE#         140
  C:8FF2H         LINE#         141
  C:8FF2H         LINE#         144
BL51 BANKED LINKER/LOCATER V6.22                                                      06/27/2021  08:53:58  PAGE 20


  C:8FF2H         LINE#         145
  C:8FF7H         LINE#         146
  -------         ENDPROC       _RDA5807MSEEK
  -------         PROC          _RDA5807MSETFQ
  X:11DFH         SYMBOL        fq
  C:8D43H         LINE#         152
  C:8D49H         LINE#         153
  C:8D49H         LINE#         154
  C:8D50H         LINE#         155
  C:8D57H         LINE#         156
  C:8D85H         LINE#         157
  C:8D98H         LINE#         158
  C:8DB1H         LINE#         159
  C:8DB4H         LINE#         160
  C:8DB6H         LINE#         161
  C:8DBEH         LINE#         162
  C:8DBEH         LINE#         163
  C:8DC5H         LINE#         164
  C:8DC8H         LINE#         165
  C:8DCAH         LINE#         166
  C:8DD1H         LINE#         167
  C:8DE5H         LINE#         168
  C:8DF1H         LINE#         169
  -------         ENDPROC       _RDA5807MSETFQ
  -------         PROC          RDA5807MGETCURRENTFQ
  C:9F2AH         LINE#         175
  C:9F2AH         LINE#         176
  C:9F2AH         LINE#         177
  C:9F2DH         LINE#         178
  C:9F3FH         LINE#         179
  C:9F61H         LINE#         180
  C:9F6FH         LINE#         181
  -------         ENDPROC       RDA5807MGETCURRENTFQ
  -------         PROC          RDA5807MGETCURRENTRSSI
  C:A231H         LINE#         187
  C:A231H         LINE#         188
  C:A231H         LINE#         189
  C:A234H         LINE#         190
  C:A240H         LINE#         191
  C:A269H         LINE#         192
  C:A269H         LINE#         193
  -------         ENDPROC       RDA5807MGETCURRENTRSSI
  -------         PROC          RDA5807MSETMUTE
  C:A994H         LINE#         199
  C:A994H         LINE#         200
  C:A994H         LINE#         201
  C:A99BH         LINE#         202
  -------         ENDPROC       RDA5807MSETMUTE
  -------         PROC          RDA5807MPOWERUP
  C:A99EH         LINE#         209
  C:A99EH         LINE#         210
  C:A99EH         LINE#         211
  C:A9A5H         LINE#         212
  -------         ENDPROC       RDA5807MPOWERUP
  -------         PROC          RDA5807MPOWERDOWN
  C:A9A8H         LINE#         219
  C:A9A8H         LINE#         220
BL51 BANKED LINKER/LOCATER V6.22                                                      06/27/2021  08:53:58  PAGE 21


  C:A9A8H         LINE#         221
  C:A9AFH         LINE#         222
  -------         ENDPROC       RDA5807MPOWERDOWN
  -------         ENDMOD        RDA5807M

  -------         MODULE        PCF8563
  C:0000H         SYMBOL        _ICE_DUMMY_
  C:A2A3H         PUBLIC        _PCF8563EnableTimer
  C:A9B2H         PUBLIC        PCF8563ReadIntSrc
  C:A9CFH         PUBLIC        PCF8563ClearAlarmFlag
  C:A84CH         PUBLIC        _PCF8563EnableClockOuput
  C:A9D8H         PUBLIC        PCF8563ClearTimerFlag
  C:A187H         PUBLIC        _PCF8563SetRegisterBits
  C:98B1H         PUBLIC        _PCF8563WriteDate
  C:849DH         PUBLIC        _PCF8563ReadTime
  C:0003H         PUBLIC        _PCF8563ReadByte
  C:AA35H         PUBLIC        PCF8563Init
  C:8B10H         PUBLIC        _PCF8563SetAlarm
  C:9E02H         PUBLIC        _PCF8563WriteTime
  C:A75FH         PUBLIC        _PCF8563WriteByte
  C:A524H         PUBLIC        PCF8563DisableAlarm
  C:A7D3H         PUBLIC        PCF8563DisableTimer
  -------         PROC          L?0030
  -------         ENDPROC       L?0030
  -------         PROC          _PCF8563WRITEBYTE
  D:0007H         SYMBOL        addr
  D:0006H         SYMBOL        dat
  C:A75FH         LINE#         10
  C:A761H         LINE#         11
  C:A761H         LINE#         12
  -------         ENDPROC       _PCF8563WRITEBYTE
  -------         PROC          _PCF8563READBYTE
  D:0007H         SYMBOL        addr
  -------         DO            
  D:0007H         SYMBOL        temp
  -------         ENDDO         
  C:0003H         LINE#         19
  C:0003H         LINE#         20
  C:0003H         LINE#         22
  C:000AH         LINE#         23
  C:000AH         LINE#         24
  -------         ENDPROC       _PCF8563READBYTE
  -------         PROC          L?0031
  -------         ENDPROC       L?0031
  -------         PROC          _PCF8563SETREGISTERBITS
  X:1209H         SYMBOL        addr
  X:120AH         SYMBOL        bit_mask
  X:120BH         SYMBOL        SC
  -------         DO            
  D:0006H         SYMBOL        temp
  -------         ENDDO         
  C:A187H         LINE#         32
  C:A194H         LINE#         33
  C:A194H         LINE#         35
  C:A199H         LINE#         36
  C:A1A1H         LINE#         37
  C:A1A9H         LINE#         38
BL51 BANKED LINKER/LOCATER V6.22                                                      06/27/2021  08:53:58  PAGE 22


  C:A1ACH         LINE#         39
  C:A1B3H         LINE#         40
  -------         ENDPROC       _PCF8563SETREGISTERBITS
  -------         PROC          _PCF8563READTIME
  X:110EH         SYMBOL        t
  -------         DO            
  X:1111H         SYMBOL        buf
  -------         ENDDO         
  C:849DH         LINE#         47
  C:84A8H         LINE#         48
  C:84A8H         LINE#         50
  C:84BFH         LINE#         51
  C:84C6H         LINE#         52
  C:84E4H         LINE#         53
  C:84EBH         LINE#         54
  C:850CH         LINE#         55
  C:8513H         LINE#         56
  C:8527H         LINE#         57
  C:852EH         LINE#         58
  C:8542H         LINE#         59
  C:8549H         LINE#         60
  C:854BH         LINE#         61
  C:854EH         LINE#         62
  C:8565H         LINE#         63
  C:856DH         LINE#         64
  C:8575H         LINE#         65
  C:857CH         LINE#         66
  C:8590H         LINE#         67
  -------         ENDPROC       _PCF8563READTIME
  -------         PROC          _PCF8563WRITETIME
  X:1224H         SYMBOL        hour
  X:1225H         SYMBOL        min
  D:0003H         SYMBOL        sec
  C:9E02H         LINE#         75
  C:9E0AH         LINE#         76
  C:9E0AH         LINE#         77
  C:9E21H         LINE#         78
  C:9E34H         LINE#         79
  -------         ENDPROC       _PCF8563WRITETIME
  -------         PROC          _PCF8563WRITEDATE
  X:11C2H         SYMBOL        year
  X:11C4H         SYMBOL        month
  X:11C5H         SYMBOL        day
  X:11C6H         SYMBOL        weekday
  C:98B1H         LINE#         88
  C:98BFH         LINE#         89
  C:98BFH         LINE#         90
  C:98CDH         LINE#         91
  C:98D5H         LINE#         92
  C:98E8H         LINE#         93
  C:9903H         LINE#         94
  C:990AH         LINE#         95
  C:990CH         LINE#         96
  -------         ENDPROC       _PCF8563WRITEDATE
  -------         PROC          _PCF8563SETALARM
  D:0007H         SYMBOL        hour
  D:0006H         SYMBOL        min
BL51 BANKED LINKER/LOCATER V6.22                                                      06/27/2021  08:53:58  PAGE 23


  D:0003H         SYMBOL        weekday
  X:1162H         SYMBOL        day
  X:1163H         SYMBOL        mode
  -------         DO            
  D:0005H         SYMBOL        temp1
  X:1164H         SYMBOL        temp2
  X:1165H         SYMBOL        temp3
  X:1166H         SYMBOL        temp4
  -------         ENDDO         
  C:8B10H         LINE#         110
  C:8B12H         LINE#         111
  C:8B12H         LINE#         112
  C:8B13H         LINE#         113
  C:8B17H         LINE#         114
  C:8B19H         LINE#         115
  C:8B1BH         LINE#         116
  C:8B2FH         LINE#         117
  C:8B46H         LINE#         118
  C:8B4BH         LINE#         119
  C:8B66H         LINE#         120
  C:8B73H         LINE#         121
  C:8B73H         LINE#         122
  C:8B77H         LINE#         123
  C:8B7AH         LINE#         124
  C:8B7CH         LINE#         125
  C:8B84H         LINE#         126
  C:8B84H         LINE#         127
  C:8B88H         LINE#         128
  C:8B8DH         LINE#         129
  C:8B8EH         LINE#         130
  C:8B90H         LINE#         131
  C:8B94H         LINE#         132
  C:8B94H         LINE#         133
  C:8B98H         LINE#         134
  C:8B9FH         LINE#         135
  C:8BA6H         LINE#         136
  C:8BA6H         LINE#         137
  C:8BABH         LINE#         138
  C:8BB5H         LINE#         139
  C:8BBFH         LINE#         140
  C:8BC9H         LINE#         141
  -------         ENDPROC       _PCF8563SETALARM
  -------         PROC          PCF8563CLEARALARMFLAG
  C:A9CFH         LINE#         149
  C:A9CFH         LINE#         150
  C:A9CFH         LINE#         151
  -------         ENDPROC       PCF8563CLEARALARMFLAG
  -------         PROC          PCF8563DISABLEALARM
  C:A524H         LINE#         158
  C:A524H         LINE#         159
  C:A524H         LINE#         160
  C:A529H         LINE#         161
  C:A52EH         LINE#         162
  C:A537H         LINE#         163
  C:A540H         LINE#         164
  -------         ENDPROC       PCF8563DISABLEALARM
  -------         PROC          _PCF8563ENABLETIMER
BL51 BANKED LINKER/LOCATER V6.22                                                      06/27/2021  08:53:58  PAGE 24


  X:1226H         SYMBOL        clock_fq
  X:1227H         SYMBOL        value
  C:A2A3H         LINE#         176
  C:A2ABH         LINE#         177
  C:A2ABH         LINE#         178
  C:A2B4H         LINE#         179
  C:A2BEH         LINE#         180
  C:A2C8H         LINE#         181
  C:A2D1H         LINE#         182
  -------         ENDPROC       _PCF8563ENABLETIMER
  -------         PROC          PCF8563CLEARTIMERFLAG
  C:A9D8H         LINE#         190
  C:A9D8H         LINE#         191
  C:A9D8H         LINE#         192
  -------         ENDPROC       PCF8563CLEARTIMERFLAG
  -------         PROC          PCF8563DISABLETIMER
  C:A7D3H         LINE#         199
  C:A7D3H         LINE#         200
  C:A7D3H         LINE#         201
  C:A7DCH         LINE#         202
  -------         ENDPROC       PCF8563DISABLETIMER
  -------         PROC          PCF8563READINTSRC
  -------         DO            
  D:0007H         SYMBOL        temp
  -------         ENDDO         
  C:A9B2H         LINE#         209
  C:A9B2H         LINE#         210
  C:A9B2H         LINE#         212
  C:A9B7H         LINE#         213
  C:A9BBH         LINE#         214
  C:A9BBH         LINE#         215
  -------         ENDPROC       PCF8563READINTSRC
  -------         PROC          _PCF8563ENABLECLOCKOUPUT
  D:0007H         SYMBOL        clock_fq
  D:0005H         SYMBOL        en
  C:A84CH         LINE#         227
  C:A84CH         LINE#         228
  C:A84CH         LINE#         229
  -------         ENDPROC       _PCF8563ENABLECLOCKOUPUT
  -------         PROC          PCF8563INIT
  C:AA35H         LINE#         231
  C:AA35H         LINE#         232
  C:AA35H         LINE#         237
  -------         ENDPROC       PCF8563INIT
  -------         ENDMOD        PCF8563

  -------         MODULE        BME280
  C:0000H         SYMBOL        _ICE_DUMMY_
  D:0080H         PUBLIC        P0
  D:0090H         PUBLIC        P1
  D:00A0H         PUBLIC        P2
  D:00B0H         PUBLIC        P3
  D:00C0H         PUBLIC        P4
  D:00C8H         PUBLIC        P5
  C:AA05H         PUBLIC        _BME280ReadByte
  D:00E8H         PUBLIC        P6
  C:9C0AH         PUBLIC        BME280Init
BL51 BANKED LINKER/LOCATER V6.22                                                      06/27/2021  08:53:58  PAGE 25


  D:00F8H         PUBLIC        P7
  X:0EF4H         PUBLIC        filter
  C:68D3H         PUBLIC        compensate_humidity
  C:9EE3H         PUBLIC        _BME280GetSensorData
  D:00A8H         PUBLIC        IE
  X:0EF5H         PUBLIC        dig_H1
  X:0EF6H         PUBLIC        dig_H2
  X:0EF8H         PUBLIC        dig_H3
  C:79B0H         PUBLIC        BME280ReadCompensationParameter
  X:0EF9H         PUBLIC        osrs_h
  X:0EFAH         PUBLIC        dig_H4
  X:0EFCH         PUBLIC        dig_H5
  X:0EFEH         PUBLIC        dig_H6
  C:A8E4H         PUBLIC        BME280SoftReset
  C:596FH         PUBLIC        compensate_pressure
  C:A4A3H         PUBLIC        _BME280WriteByte
  X:0EFFH         PUBLIC        dig_P1
  C:888CH         PUBLIC        BME280ReadSensorRawData
  X:0F01H         PUBLIC        dig_P2
  X:0F03H         PUBLIC        dig_P3
  D:00B8H         PUBLIC        IP
  X:0F05H         PUBLIC        osrs_p
  X:0F06H         PUBLIC        dig_P4
  X:0F08H         PUBLIC        dig_P5
  X:0F0AH         PUBLIC        dig_T1
  X:0F0CH         PUBLIC        dig_P6
  X:0F0EH         PUBLIC        dig_T2
  X:0F10H         PUBLIC        dig_P7
  X:0F12H         PUBLIC        dig_T3
  X:0F14H         PUBLIC        osrs_t
  X:0F15H         PUBLIC        dig_P8
  X:0F17H         PUBLIC        dig_P9
  D:00D8H         PUBLIC        CCON
  C:A654H         PUBLIC        _BME280SetMode
  X:0F19H         PUBLIC        t_sb
  X:0F1AH         PUBLIC        spi3w_en
  X:0F1BH         PUBLIC        uncomp_temperature
  D:0098H         PUBLIC        SCON
  D:0088H         PUBLIC        TCON
  C:A76CH         PUBLIC        _BME280ContinuousMeasurement
  C:AA43H         SYMBOL        _?ix1000
  C:7340H         PUBLIC        compensate_temperature
  C:A549H         PUBLIC        _BME280SingleMeasurement
  X:0F1FH         PUBLIC        uncomp_humidity
  C:A8D6H         PUBLIC        BME280CheckConnection
  X:0F21H         PUBLIC        uncomp_pressure
  X:0F25H         PUBLIC        BME280_mode
  X:0F26H         PUBLIC        t_fine
  D:00D0H         PUBLIC        PSW
  C:86A4H         PUBLIC        BME280_cal_meas_delay
  -------         PROC          L?0043
  -------         ENDPROC       L?0043
  -------         PROC          _BME280WRITEBYTE
  D:0007H         SYMBOL        addr
  D:0006H         SYMBOL        dat
  C:A4A3H         LINE#         49
  C:A4A5H         LINE#         50
BL51 BANKED LINKER/LOCATER V6.22                                                      06/27/2021  08:53:58  PAGE 26


  C:A4A5H         LINE#         51
  -------         ENDPROC       _BME280WRITEBYTE
  -------         PROC          _BME280READBYTE
  D:0007H         SYMBOL        addr
  -------         DO            
  D:0007H         SYMBOL        temp
  -------         ENDDO         
  C:AA05H         LINE#         58
  C:AA05H         LINE#         59
  C:AA05H         LINE#         61
  C:AA0CH         LINE#         62
  C:AA0CH         LINE#         63
  -------         ENDPROC       _BME280READBYTE
  -------         PROC          BME280CHECKCONNECTION
  C:A8D6H         LINE#         69
  C:A8D6H         LINE#         70
  C:A8D6H         LINE#         71
  C:A8DEH         LINE#         72
  C:A8E1H         LINE#         74
  C:A8E3H         LINE#         75
  -------         ENDPROC       BME280CHECKCONNECTION
  -------         PROC          BME280_CAL_MEAS_DELAY
  -------         DO            
  D:0007H         SYMBOL        max_delay
  X:1121H         SYMBOL        temp_osr
  X:1122H         SYMBOL        pres_osr
  X:1123H         SYMBOL        hum_osr
  X:1124H         SYMBOL        osr_sett_to_act_osr
  -------         ENDDO         
  C:86A4H         LINE#         81
  C:86A4H         LINE#         82
  C:86A4H         LINE#         89
  C:86B7H         LINE#         92
  C:86C1H         LINE#         93
  C:86C1H         LINE#         94
  C:86D0H         LINE#         95
  C:86D2H         LINE#         97
  C:86D2H         LINE#         98
  C:86D8H         LINE#         99
  C:86D8H         LINE#         101
  C:86E2H         LINE#         102
  C:86E2H         LINE#         103
  C:86F1H         LINE#         104
  C:86F3H         LINE#         106
  C:86F3H         LINE#         107
  C:86F9H         LINE#         108
  C:86F9H         LINE#         110
  C:8703H         LINE#         111
  C:8703H         LINE#         112
  C:8712H         LINE#         113
  C:8714H         LINE#         115
  C:8714H         LINE#         116
  C:871AH         LINE#         117
  C:871AH         LINE#         119
  C:879FH         LINE#         121
  C:87A1H         LINE#         122
  -------         ENDPROC       BME280_CAL_MEAS_DELAY
BL51 BANKED LINKER/LOCATER V6.22                                                      06/27/2021  08:53:58  PAGE 27


  -------         PROC          BME280READCOMPENSATIONPARAMETER
  -------         DO            
  X:0FDBH         SYMBOL        buf1
  X:0FF5H         SYMBOL        buf2
  -------         ENDDO         
  C:79B0H         LINE#         129
  C:79B0H         LINE#         130
  C:79B0H         LINE#         132
  C:79C7H         LINE#         133
  C:79DEH         LINE#         135
  C:79F2H         LINE#         136
  C:7A06H         LINE#         137
  C:7A1AH         LINE#         138
  C:7A2EH         LINE#         139
  C:7A42H         LINE#         140
  C:7A56H         LINE#         141
  C:7A6AH         LINE#         142
  C:7A7EH         LINE#         143
  C:7A92H         LINE#         144
  C:7AA6H         LINE#         145
  C:7ABAH         LINE#         146
  C:7ACEH         LINE#         147
  C:7AD6H         LINE#         148
  C:7AEAH         LINE#         149
  C:7AF2H         LINE#         150
  C:7B0AH         LINE#         151
  C:7B27H         LINE#         152
  C:7B2FH         LINE#         153
  -------         ENDPROC       BME280READCOMPENSATIONPARAMETER
  -------         PROC          BME280READSENSORRAWDATA
  -------         DO            
  X:1167H         SYMBOL        buf
  -------         ENDDO         
  C:888CH         LINE#         159
  C:888CH         LINE#         160
  C:888CH         LINE#         162
  C:88A3H         LINE#         163
  C:88FAH         LINE#         164
  C:8951H         LINE#         165
  C:8963H         LINE#         166
  -------         ENDPROC       BME280READSENSORRAWDATA
  -------         PROC          COMPENSATE_TEMPERATURE
  -------         DO            
  X:1077H         SYMBOL        var1
  X:107BH         SYMBOL        var2
  X:107FH         SYMBOL        temperature
  X:1083H         SYMBOL        temperature_min
  X:1087H         SYMBOL        temperature_max
  -------         ENDDO         
  C:7340H         LINE#         171
  C:7340H         LINE#         172
  C:7340H         LINE#         176
  C:734AH         LINE#         177
  C:7354H         LINE#         179
  C:73A7H         LINE#         180
  C:73CAH         LINE#         181
  C:741BH         LINE#         182
BL51 BANKED LINKER/LOCATER V6.22                                                      06/27/2021  08:53:58  PAGE 28


  C:7458H         LINE#         183
  C:7480H         LINE#         184
  C:74AFH         LINE#         185
  C:74D0H         LINE#         186
  C:74D0H         LINE#         187
  C:74D3H         LINE#         188
  C:74D5H         LINE#         189
  C:74F8H         LINE#         190
  C:74F8H         LINE#         191
  C:750CH         LINE#         192
  C:750CH         LINE#         193
  C:751AH         LINE#         194
  -------         ENDPROC       COMPENSATE_TEMPERATURE
  -------         PROC          COMPENSATE_PRESSURE
  -------         DO            
  X:1033H         SYMBOL        var1
  X:1037H         SYMBOL        var2
  X:103BH         SYMBOL        var3
  X:103FH         SYMBOL        pressure
  X:1043H         SYMBOL        pressure_min
  X:1047H         SYMBOL        pressure_max
  -------         ENDDO         
  C:596FH         LINE#         199
  C:596FH         LINE#         200
  C:596FH         LINE#         205
  C:5979H         LINE#         206
  C:5983H         LINE#         208
  C:59AEH         LINE#         209
  C:59F4H         LINE#         210
  C:5A41H         LINE#         211
  C:5A88H         LINE#         212
  C:5AC5H         LINE#         213
  C:5B02H         LINE#         214
  C:5B48H         LINE#         217
  C:5B65H         LINE#         218
  C:5B65H         LINE#         219
  C:5B8FH         LINE#         220
  C:5BE2H         LINE#         221
  C:5C1FH         LINE#         222
  C:5C4BH         LINE#         223
  C:5CBAH         LINE#         224
  C:5CDBH         LINE#         225
  C:5CDBH         LINE#         226
  C:5CDBH         LINE#         227
  C:5CDDH         LINE#         228
  C:5D00H         LINE#         229
  C:5D00H         LINE#         230
  C:5D03H         LINE#         231
  C:5D03H         LINE#         232
  C:5D05H         LINE#         234
  C:5D05H         LINE#         235
  C:5D19H         LINE#         236
  C:5D19H         LINE#         238
  C:5D27H         LINE#         239
  -------         ENDPROC       COMPENSATE_PRESSURE
  -------         PROC          COMPENSATE_HUMIDITY
  -------         DO            
BL51 BANKED LINKER/LOCATER V6.22                                                      06/27/2021  08:53:58  PAGE 29


  X:0FB7H         SYMBOL        humidity
  X:0FBBH         SYMBOL        humidity_min
  X:0FBFH         SYMBOL        humidity_max
  X:0FC3H         SYMBOL        var1
  X:0FC7H         SYMBOL        var2
  X:0FCBH         SYMBOL        var3
  X:0FCFH         SYMBOL        var4
  X:0FD3H         SYMBOL        var5
  X:0FD7H         SYMBOL        var6
  -------         ENDDO         
  C:68D3H         LINE#         244
  C:68D3H         LINE#         245
  C:68D3H         LINE#         247
  C:68DDH         LINE#         248
  C:68E7H         LINE#         256
  C:6909H         LINE#         257
  C:695FH         LINE#         258
  C:6982H         LINE#         259
  C:699EH         LINE#         260
  C:69D2H         LINE#         261
  C:6A16H         LINE#         262
  C:6A6DH         LINE#         263
  C:6AB9H         LINE#         265
  C:6ADCH         LINE#         266
  C:6ADCH         LINE#         267
  C:6ADFH         LINE#         268
  C:6AE1H         LINE#         269
  C:6B02H         LINE#         270
  C:6B02H         LINE#         271
  C:6B16H         LINE#         272
  C:6B16H         LINE#         273
  C:6B24H         LINE#         274
  -------         ENDPROC       COMPENSATE_HUMIDITY
  -------         PROC          _BME280GETSENSORDATA
  X:120CH         SYMBOL        p
  C:9EE3H         LINE#         280
  C:9EEEH         LINE#         281
  C:9EEEH         LINE#         282
  C:9EF1H         LINE#         283
  C:9F02H         LINE#         284
  C:9F16H         LINE#         285
  -------         ENDPROC       _BME280GETSENSORDATA
  -------         PROC          BME280SOFTRESET
  C:A8E4H         LINE#         292
  C:A8E4H         LINE#         293
  C:A8E4H         LINE#         294
  C:A8EBH         LINE#         295
  -------         ENDPROC       BME280SOFTRESET
  -------         PROC          BME280INIT
  -------         DO            
  X:1236H         SYMBOL        time_out
  -------         ENDDO         
  C:9C0AH         LINE#         303
  C:9C0AH         LINE#         304
  C:9C0AH         LINE#         305
  C:9C10H         LINE#         310
  C:9C17H         LINE#         311
BL51 BANKED LINKER/LOCATER V6.22                                                      06/27/2021  08:53:58  PAGE 30


  C:9C1DH         LINE#         312
  C:9C1DH         LINE#         313
  C:9C23H         LINE#         314
  C:9C2BH         LINE#         315
  C:9C2DH         LINE#         316
  C:9C2DH         LINE#         317
  C:9C30H         LINE#         318
  C:9C33H         LINE#         319
  C:9C36H         LINE#         320
  C:9C40H         LINE#         321
  C:9C5FH         LINE#         322
  C:9C61H         LINE#         323
  -------         ENDPROC       BME280INIT
  -------         PROC          _BME280SETMODE
  D:0007H         SYMBOL        mode
  C:A654H         LINE#         332
  C:A654H         LINE#         333
  C:A654H         LINE#         334
  C:A659H         LINE#         335
  -------         ENDPROC       _BME280SETMODE
  -------         PROC          _BME280SINGLEMEASUREMENT
  X:120FH         SYMBOL        p
  C:A549H         LINE#         342
  C:A554H         LINE#         343
  C:A554H         LINE#         344
  C:A559H         LINE#         345
  C:A55FH         LINE#         346
  -------         ENDPROC       _BME280SINGLEMEASUREMENT
  -------         PROC          _BME280CONTINUOUSMEASUREMENT
  D:0007H         SYMBOL        t
  C:A76CH         LINE#         358
  C:A76CH         LINE#         359
  C:A76CH         LINE#         360
  C:A772H         LINE#         361
  C:A774H         LINE#         362
  C:A779H         LINE#         363
  C:A77CH         LINE#         364
  -------         ENDPROC       _BME280CONTINUOUSMEASUREMENT
  -------         ENDMOD        BME280

  -------         MODULE        ELLIPSOID_FITTING
  C:0000H         SYMBOL        _ICE_DUMMY_
  C:9F70H         PUBLIC        ResetMatrix
  C:91DDH         PUBLIC        _MoveBiggestElement_to_Top
  C:9B24H         PUBLIC        _Abs
  X:0C08H         PUBLIC        final_solve
  C:9434H         PUBLIC        CalcData_Input_average
  C:8FF8H         PUBLIC        _Row2_add_kRow1
  C:5D28H         PUBLIC        _Ellipsoid_fitting_Process
  X:0C20H         PUBLIC        N
  C:8394H         PUBLIC        Matrix_GaussElimination
  C:87A2H         PUBLIC        _Row2_swop_Row1
  C:751BH         PUBLIC        _Matrix_Solve
  C:7B30H         PUBLIC        _CalcData_Input
  C:9773H         PUBLIC        Matrix_RowSimplify
  X:0C22H         PUBLIC        m_matrix
  C:99DBH         PUBLIC        _k_muiltply_Row
BL51 BANKED LINKER/LOCATER V6.22                                                      06/27/2021  08:53:58  PAGE 31


  X:0CCAH         PUBLIC        m_result
  -------         PROC          L?0068
  -------         ENDPROC       L?0068
  -------         PROC          _ABS
  X:11E3H         SYMBOL        a
  C:9B24H         LINE#         15
  C:9B2AH         LINE#         16
  C:9B2AH         LINE#         17
  C:9B55H         LINE#         18
  -------         ENDPROC       _ABS
  -------         PROC          RESETMATRIX
  -------         DO            
  X:1228H         SYMBOL        row
  X:1229H         SYMBOL        column
  -------         ENDDO         
  C:9F70H         LINE#         21
  C:9F70H         LINE#         22
  C:9F70H         LINE#         24
  C:9F75H         LINE#         25
  C:9F75H         LINE#         26
  C:9F84H         LINE#         27
  C:9FABH         LINE#         28
  C:9FB5H         LINE#         29
  -------         ENDPROC       RESETMATRIX
  -------         PROC          _CALCDATA_INPUT
  X:0F8DH         SYMBOL        x
  X:0F91H         SYMBOL        y
  X:0F95H         SYMBOL        z
  -------         DO            
  X:0F99H         SYMBOL        V
  X:0FB5H         SYMBOL        row
  X:0FB6H         SYMBOL        column
  -------         ENDDO         
  C:7B30H         LINE#         32
  C:7B36H         LINE#         33
  C:7B36H         LINE#         36
  C:7B44H         LINE#         37
  C:7B69H         LINE#         38
  C:7B87H         LINE#         39
  C:7B9BH         LINE#         40
  C:7BAFH         LINE#         41
  C:7BC3H         LINE#         42
  C:7BCDH         LINE#         43
  C:7BF5H         LINE#         45
  C:7BFAH         LINE#         46
  C:7BFAH         LINE#         47
  C:7BFFH         LINE#         48
  C:7BFFH         LINE#         49
  C:7C86H         LINE#         50
  C:7C94H         LINE#         51
  C:7CA2H         LINE#         53
  -------         ENDPROC       _CALCDATA_INPUT
  -------         PROC          CALCDATA_INPUT_AVERAGE
  -------         DO            
  X:122AH         SYMBOL        row
  X:122BH         SYMBOL        column
  -------         ENDDO         
BL51 BANKED LINKER/LOCATER V6.22                                                      06/27/2021  08:53:58  PAGE 32


  C:9434H         LINE#         56
  C:9434H         LINE#         57
  C:9434H         LINE#         59
  C:9439H         LINE#         60
  C:943EH         LINE#         61
  C:94B3H         LINE#         63
  -------         ENDPROC       CALCDATA_INPUT_AVERAGE
  -------         PROC          _ROW2_SWOP_ROW1
  X:112AH         SYMBOL        row1
  X:112CH         SYMBOL        row2
  -------         DO            
  X:112EH         SYMBOL        tmp
  X:1132H         SYMBOL        column
  -------         ENDDO         
  C:87A2H         LINE#         83
  C:87B0H         LINE#         84
  C:87B0H         LINE#         85
  C:87B8H         LINE#         87
  C:87BDH         LINE#         88
  C:87BDH         LINE#         89
  C:87F2H         LINE#         90
  C:8848H         LINE#         91
  C:887DH         LINE#         92
  C:888BH         LINE#         93
  -------         ENDPROC       _ROW2_SWOP_ROW1
  -------         PROC          _K_MUILTPLY_ROW
  X:1187H         SYMBOL        k
  X:118BH         SYMBOL        row
  -------         DO            
  X:118DH         SYMBOL        column
  -------         ENDDO         
  C:99DBH         LINE#         96
  C:99E1H         LINE#         97
  C:99E1H         LINE#         99
  C:99E6H         LINE#         100
  C:9A3BH         LINE#         101
  -------         ENDPROC       _K_MUILTPLY_ROW
  -------         PROC          _ROW2_ADD_KROW1
  X:1133H         SYMBOL        k
  X:1137H         SYMBOL        row1
  X:1139H         SYMBOL        row2
  -------         DO            
  X:113BH         SYMBOL        column
  -------         ENDDO         
  C:8FF8H         LINE#         104
  C:8FFEH         LINE#         105
  C:8FFEH         LINE#         107
  C:9003H         LINE#         108
  C:909EH         LINE#         109
  -------         ENDPROC       _ROW2_ADD_KROW1
  -------         PROC          _MOVEBIGGESTELEMENT_TO_TOP
  X:11AAH         SYMBOL        k
  -------         DO            
  X:11ACH         SYMBOL        row
  X:11AEH         SYMBOL        column
  -------         ENDDO         
  C:91DDH         LINE#         113
BL51 BANKED LINKER/LOCATER V6.22                                                      06/27/2021  08:53:58  PAGE 33


  C:91E5H         LINE#         114
  C:91E5H         LINE#         115
  C:91EEH         LINE#         116
  C:920DH         LINE#         117
  C:920DH         LINE#         118
  C:9253H         LINE#         119
  C:9253H         LINE#         120
  C:9264H         LINE#         121
  C:9264H         LINE#         122
  C:9275H         LINE#         123
  -------         ENDPROC       _MOVEBIGGESTELEMENT_TO_TOP
  -------         PROC          MATRIX_GAUSSELIMINATION
  -------         DO            
  X:11B0H         SYMBOL        k
  X:11B4H         SYMBOL        cnt
  X:11B5H         SYMBOL        row
  -------         ENDDO         
  C:8394H         LINE#         126
  C:8394H         LINE#         127
  C:8394H         LINE#         128
  C:839EH         LINE#         130
  C:83B0H         LINE#         131
  C:83B0H         LINE#         133
  C:83B5H         LINE#         134
  C:83E3H         LINE#         135
  C:83E6H         LINE#         137
  C:83FAH         LINE#         138
  C:83FAH         LINE#         139
  C:845FH         LINE#         140
  C:8488H         LINE#         141
  C:8491H         LINE#         143
  C:849AH         LINE#         144
  C:849CH         LINE#         145
  -------         ENDPROC       MATRIX_GAUSSELIMINATION
  -------         PROC          MATRIX_ROWSIMPLIFY
  -------         DO            
  X:11C7H         SYMBOL        k
  X:11CBH         SYMBOL        row
  -------         ENDDO         
  C:9773H         LINE#         148
  C:9773H         LINE#         149
  C:9773H         LINE#         150
  C:977DH         LINE#         152
  C:9782H         LINE#         153
  C:9782H         LINE#         154
  C:97B6H         LINE#         155
  C:97D2H         LINE#         156
  C:97DEH         LINE#         158
  -------         ENDPROC       MATRIX_ROWSIMPLIFY
  -------         PROC          _MATRIX_SOLVE
  X:116FH         SYMBOL        solve
  -------         DO            
  X:1172H         SYMBOL        row
  X:1176H         SYMBOL        column
  -------         ENDDO         
  C:751BH         LINE#         161
  C:7526H         LINE#         162
BL51 BANKED LINKER/LOCATER V6.22                                                      06/27/2021  08:53:58  PAGE 34


  C:7526H         LINE#         165
  C:753EH         LINE#         166
  C:753EH         LINE#         167
  C:759BH         LINE#         168
  C:75CAH         LINE#         169
  C:767FH         LINE#         170
  C:76A6H         LINE#         174
  -------         ENDPROC       _MATRIX_SOLVE
  -------         PROC          _ELLIPSOID_FITTING_PROCESS
  X:0F2AH         SYMBOL        dat
  -------         DO            
  X:0F2DH         SYMBOL        a
  X:0F31H         SYMBOL        b
  X:0F35H         SYMBOL        c
  X:0F39H         SYMBOL        d
  X:0F3DH         SYMBOL        e
  X:0F41H         SYMBOL        f
  X:0F45H         SYMBOL        X0
  X:0F49H         SYMBOL        Y0
  X:0F4DH         SYMBOL        Z0
  X:0F51H         SYMBOL        A
  X:0F55H         SYMBOL        B
  X:0F59H         SYMBOL        C
  -------         ENDDO         
  C:5D28H         LINE#         177
  C:5D33H         LINE#         178
  C:5D33H         LINE#         179
  C:5D6DH         LINE#         180
  C:5DA9H         LINE#         195
  C:5DACH         LINE#         197
  C:5DB2H         LINE#         198
  C:5DB2H         LINE#         199
  C:5DBBH         LINE#         200
  C:5DBEH         LINE#         201
  C:5DBEH         LINE#         203
  C:5DBEH         LINE#         204
  C:5DC1H         LINE#         205
  C:5DCAH         LINE#         206
  C:5DDEH         LINE#         207
  C:5DF2H         LINE#         208
  C:5E06H         LINE#         209
  C:5E1AH         LINE#         210
  C:5E2EH         LINE#         211
  C:5E42H         LINE#         213
  C:5E62H         LINE#         214
  C:5EA3H         LINE#         215
  C:5EE4H         LINE#         216
  C:5F9CH         LINE#         217
  C:5FCCH         LINE#         218
  C:5FFCH         LINE#         220
  C:601EH         LINE#         221
  C:6043H         LINE#         222
  C:6068H         LINE#         223
  C:607CH         LINE#         224
  C:6090H         LINE#         225
  C:60A4H         LINE#         231
  C:60A6H         LINE#         232
BL51 BANKED LINKER/LOCATER V6.22                                                      06/27/2021  08:53:58  PAGE 35


  C:60A6H         LINE#         233
  -------         ENDPROC       _ELLIPSOID_FITTING_PROCESS
  -------         ENDMOD        ELLIPSOID_FITTING

  -------         MODULE        HMC5883L
  C:0000H         SYMBOL        _ICE_DUMMY_
  X:108BH         PUBLIC        MA
  X:108CH         PUBLIC        MD
  X:108DH         PUBLIC        DO
  X:108EH         PUBLIC        GN
  X:108FH         PUBLIC        MS
  C:A040H         PUBLIC        _HMC5883L_Set_Calibration_Value
  C:AA0DH         PUBLIC        _HMC5883L_Read_Byte
  C:7CA3H         PUBLIC        _Read_HMC5883L
  C:0046H         PUBLIC        _HMC5883L_Write_Byte
  C:A974H         PUBLIC        _HMC5883L_Set_Mode
  C:9C62H         PUBLIC        HMC5883L_Init
  C:A85CH         PUBLIC        CheckHMC5883LConnection
  X:1090H         PUBLIC        mag_x_offset
  X:1092H         PUBLIC        mag_y_scale
  X:1096H         PUBLIC        mag_y_offset
  X:1098H         PUBLIC        mag_z_scale
  X:109CH         PUBLIC        mag_z_offset
  C:6B25H         PUBLIC        _HMC5883L_Get_AngleXY
  -------         PROC          _HMC5883L_WRITE_BYTE
  D:0007H         SYMBOL        addr
  D:0006H         SYMBOL        dat
  C:0046H         LINE#         36
  C:0048H         LINE#         37
  C:0048H         LINE#         38
  -------         ENDPROC       _HMC5883L_WRITE_BYTE
  -------         PROC          _HMC5883L_READ_BYTE
  D:0007H         SYMBOL        addr
  -------         DO            
  D:0007H         SYMBOL        temp
  -------         ENDDO         
  C:AA0DH         LINE#         45
  C:AA0DH         LINE#         46
  C:AA0DH         LINE#         48
  C:AA14H         LINE#         49
  C:AA14H         LINE#         50
  -------         ENDPROC       _HMC5883L_READ_BYTE
  -------         PROC          CHECKHMC5883LCONNECTION
  C:A85CH         LINE#         56
  C:A85CH         LINE#         57
  C:A85CH         LINE#         58
  C:A866H         LINE#         59
  C:A869H         LINE#         61
  C:A86BH         LINE#         62
  -------         ENDPROC       CHECKHMC5883LCONNECTION
  -------         PROC          _READ_HMC5883L
  X:113CH         SYMBOL        buf
  -------         DO            
  X:113FH         SYMBOL        tp
  -------         ENDDO         
  C:7CA3H         LINE#         68
  C:7CAEH         LINE#         69
BL51 BANKED LINKER/LOCATER V6.22                                                      06/27/2021  08:53:58  PAGE 36


  C:7CAEH         LINE#         71
  C:7CC5H         LINE#         72
  C:7CE0H         LINE#         73
  C:7CFEH         LINE#         74
  C:7D11H         LINE#         75
  C:7D29H         LINE#         76
  C:7D51H         LINE#         77
  C:7D79H         LINE#         78
  C:7DB9H         LINE#         79
  -------         ENDPROC       _READ_HMC5883L
  -------         PROC          _HMC5883L_SET_CALIBRATION_VALUE
  D:0006H         SYMBOL        x_offset
  D:0004H         SYMBOL        y_offset
  D:0002H         SYMBOL        z_offset
  X:10D7H         SYMBOL        y_scale
  X:10DBH         SYMBOL        z_scale
  C:A040H         LINE#         88
  C:A040H         LINE#         89
  C:A040H         LINE#         90
  C:A048H         LINE#         91
  C:A052H         LINE#         92
  C:A05CH         LINE#         93
  C:A070H         LINE#         94
  -------         ENDPROC       _HMC5883L_SET_CALIBRATION_VALUE
  -------         PROC          _HMC5883L_SET_MODE
  D:0007H         SYMBOL        mode
  C:A974H         LINE#         103
  C:A974H         LINE#         104
  C:A974H         LINE#         105
  C:A97AH         LINE#         106
  -------         ENDPROC       _HMC5883L_SET_MODE
  -------         PROC          HMC5883L_INIT
  -------         DO            
  X:1237H         SYMBOL        time_out
  -------         ENDDO         
  C:9C62H         LINE#         114
  C:9C62H         LINE#         115
  C:9C62H         LINE#         116
  C:9C68H         LINE#         117
  C:9C6EH         LINE#         118
  C:9C6EH         LINE#         119
  C:9C74H         LINE#         120
  C:9C7CH         LINE#         121
  C:9C7EH         LINE#         122
  C:9C7EH         LINE#         123
  C:9C9CH         LINE#         124
  C:9CAAH         LINE#         125
  C:9CB4H         LINE#         127
  C:9CB6H         LINE#         128
  -------         ENDPROC       HMC5883L_INIT
  -------         PROC          _HMC5883L_GET_ANGLEXY
  X:104BH         SYMBOL        mag_data
  D:0004H         SYMBOL        ax
  X:1052H         SYMBOL        ay
  -------         DO            
  D:0004H         SYMBOL        Yaw
  X:1056H         SYMBOL        RadX
BL51 BANKED LINKER/LOCATER V6.22                                                      06/27/2021  08:53:58  PAGE 37


  X:105AH         SYMBOL        RadY
  X:105EH         SYMBOL        Xh
  D:0004H         SYMBOL        Yh
  -------         ENDDO         
  C:6B25H         LINE#         135
  C:6B30H         LINE#         136
  C:6B30H         LINE#         138
  C:6B44H         LINE#         139
  C:6B66H         LINE#         140
  C:6C93H         LINE#         141
  C:6D1EH         LINE#         142
  C:6D64H         LINE#         143
  C:6D64H         LINE#         144
  -------         ENDPROC       _HMC5883L_GET_ANGLEXY
  -------         ENDMOD        HMC5883L

  -------         MODULE        LSM6DSM
  C:0000H         SYMBOL        _ICE_DUMMY_
  D:0080H         PUBLIC        P0
  C:9E99H         PUBLIC        _LSM6DSMEnablePedometer
  D:0090H         PUBLIC        P1
  D:00A0H         PUBLIC        P2
  C:A88CH         PUBLIC        LSM6DSMCheckConnection
  D:00B0H         PUBLIC        P3
  D:00C0H         PUBLIC        P4
  D:00C8H         PUBLIC        P5
  D:00E8H         PUBLIC        P6
  D:00F8H         PUBLIC        P7
  I:0083H         PUBLIC        exInt
  I:0087H         PUBLIC        eyInt
  I:008BH         PUBLIC        ezInt
  D:00A8H         PUBLIC        IE
  C:A70EH         PUBLIC        LSM6DSMResetStepCounter
  C:AA25H         PUBLIC        _LSM6DSMConfigGyr
  D:00B8H         PUBLIC        IP
  C:AA15H         PUBLIC        _LSM6DSMReadByte
  C:9BB0H         PUBLIC        LSM6DSMInit
  I:008FH         PUBLIC        q0
  I:0093H         PUBLIC        q1
  C:A4B0H         PUBLIC        LSM6DSMEnableTapDetection
  I:0097H         PUBLIC        q2
  I:009BH         PUBLIC        q3
  D:00D8H         PUBLIC        CCON
  C:A86CH         PUBLIC        LSM6DSMSoftReset
  C:A91CH         PUBLIC        _LSM6DSMWriteByte
  C:A6F5H         PUBLIC        LSM6DSMGetCurrentStep
  D:0098H         PUBLIC        SCON
  D:0088H         PUBLIC        TCON
  C:9276H         PUBLIC        _LSM6DSMEnableAWT
  C:A9E1H         PUBLIC        LSM6DSMEnableEMbeddedFunc
  C:8C90H         PUBLIC        _LSM6DSMReadGYRAndACC
  C:A1C1H         PUBLIC        _LSM6DSMRSetRegisterBits
  C:AA1DH         PUBLIC        _LSM6DSMConfigAcc
  C:A9EAH         PUBLIC        LSM6DSMDisablePedometer
  C:487DH         PUBLIC        _IMUupdate
  D:00D0H         PUBLIC        PSW
  -------         PROC          _LSM6DSMWRITEBYTE
BL51 BANKED LINKER/LOCATER V6.22                                                      06/27/2021  08:53:58  PAGE 38


  D:0007H         SYMBOL        addr
  D:0006H         SYMBOL        dat
  C:A91CH         LINE#         7
  C:A91EH         LINE#         8
  C:A91EH         LINE#         9
  -------         ENDPROC       _LSM6DSMWRITEBYTE
  -------         PROC          _LSM6DSMREADBYTE
  D:0007H         SYMBOL        addr
  -------         DO            
  D:0007H         SYMBOL        temp
  -------         ENDDO         
  C:AA15H         LINE#         11
  C:AA15H         LINE#         12
  C:AA15H         LINE#         14
  C:AA1CH         LINE#         15
  C:AA1CH         LINE#         16
  -------         ENDPROC       _LSM6DSMREADBYTE
  -------         PROC          L?0028
  -------         ENDPROC       L?0028
  -------         PROC          _LSM6DSMRSETREGISTERBITS
  X:1212H         SYMBOL        addr
  X:1213H         SYMBOL        dat
  X:1214H         SYMBOL        SC
  -------         DO            
  D:0006H         SYMBOL        temp
  -------         ENDDO         
  C:A1C1H         LINE#         17
  C:A1CEH         LINE#         18
  C:A1CEH         LINE#         20
  C:A1D3H         LINE#         21
  C:A1DBH         LINE#         22
  C:A1E3H         LINE#         23
  C:A1E6H         LINE#         24
  C:A1EDH         LINE#         25
  -------         ENDPROC       _LSM6DSMRSETREGISTERBITS
  -------         PROC          LSM6DSMCHECKCONNECTION
  -------         DO            
  D:0007H         SYMBOL        temp
  -------         ENDDO         
  C:A88CH         LINE#         27
  C:A88CH         LINE#         28
  C:A88CH         LINE#         30
  C:A891H         LINE#         31
  C:A895H         LINE#         32
  C:A898H         LINE#         34
  C:A89AH         LINE#         35
  -------         ENDPROC       LSM6DSMCHECKCONNECTION
  -------         PROC          _LSM6DSMCONFIGACC
  D:0007H         SYMBOL        acc_odr
  D:0005H         SYMBOL        acc_scale
  C:AA1DH         LINE#         36
  C:AA1DH         LINE#         37
  C:AA1DH         LINE#         38
  -------         ENDPROC       _LSM6DSMCONFIGACC
  -------         PROC          _LSM6DSMCONFIGGYR
  D:0007H         SYMBOL        gyr_odr
  D:0005H         SYMBOL        gyr_scale
BL51 BANKED LINKER/LOCATER V6.22                                                      06/27/2021  08:53:58  PAGE 39


  C:AA25H         LINE#         40
  C:AA25H         LINE#         41
  C:AA25H         LINE#         42
  -------         ENDPROC       _LSM6DSMCONFIGGYR
  -------         PROC          _LSM6DSMREADGYRANDACC
  X:10C2H         SYMBOL        p
  -------         DO            
  X:10C5H         SYMBOL        buf
  -------         ENDDO         
  C:8C90H         LINE#         44
  C:8C9BH         LINE#         45
  C:8C9BH         LINE#         47
  C:8CB2H         LINE#         49
  C:8CD2H         LINE#         50
  C:8CE7H         LINE#         51
  C:8CFCH         LINE#         53
  C:8D0EH         LINE#         54
  C:8D2EH         LINE#         55
  -------         ENDPROC       _LSM6DSMREADGYRANDACC
  -------         PROC          LSM6DSMSOFTRESET
  C:A86CH         LINE#         67
  C:A86CH         LINE#         68
  C:A86CH         LINE#         69
  C:A875H         LINE#         70
  -------         ENDPROC       LSM6DSMSOFTRESET
  -------         PROC          LSM6DSMENABLEEMBEDDEDFUNC
  C:A9E1H         LINE#         72
  C:A9E1H         LINE#         73
  C:A9E1H         LINE#         74
  -------         ENDPROC       LSM6DSMENABLEEMBEDDEDFUNC
  -------         PROC          _LSM6DSMENABLEAWT
  D:0002H         SYMBOL        angle
  D:0004H         SYMBOL        delay
  -------         DO            
  X:122CH         SYMBOL        set_delay
  X:122DH         SYMBOL        set_angle
  -------         ENDDO         
  C:9276H         LINE#         81
  C:927AH         LINE#         82
  C:927AH         LINE#         85
  C:928AH         LINE#         86
  C:92C0H         LINE#         87
  C:92C9H         LINE#         88
  C:92CCH         LINE#         89
  C:92D5H         LINE#         90
  C:92D8H         LINE#         91
  C:92DFH         LINE#         92
  C:92E9H         LINE#         93
  C:92F3H         LINE#         94
  C:92FAH         LINE#         95
  C:9301H         LINE#         96
  C:9306H         LINE#         98
  -------         ENDPROC       _LSM6DSMENABLEAWT
  -------         PROC          LSM6DSMENABLETAPDETECTION
  C:A4B0H         LINE#         106
  C:A4B0H         LINE#         107
  C:A4B0H         LINE#         108
BL51 BANKED LINKER/LOCATER V6.22                                                      06/27/2021  08:53:58  PAGE 40


  C:A4B9H         LINE#         109
  C:A4C2H         LINE#         110
  C:A4C9H         LINE#         111
  C:A4CEH         LINE#         112
  -------         ENDPROC       LSM6DSMENABLETAPDETECTION
  -------         PROC          _LSM6DSMENABLEPEDOMETER
  X:1215H         SYMBOL        debounce_time
  X:1217H         SYMBOL        debounce_step
  C:9E99H         LINE#         123
  C:9EA4H         LINE#         124
  C:9EA4H         LINE#         125
  C:9EABH         LINE#         126
  C:9EB2H         LINE#         127
  C:9ED3H         LINE#         128
  C:9EDAH         LINE#         129
  -------         ENDPROC       _LSM6DSMENABLEPEDOMETER
  -------         PROC          LSM6DSMGETCURRENTSTEP
  -------         DO            
  X:1238H         SYMBOL        tempL
  D:0007H         SYMBOL        tempH
  -------         ENDDO         
  C:A6F5H         LINE#         132
  C:A6F5H         LINE#         133
  C:A6F5H         LINE#         135
  C:A6FFH         LINE#         136
  C:A704H         LINE#         137
  C:A70DH         LINE#         138
  -------         ENDPROC       LSM6DSMGETCURRENTSTEP
  -------         PROC          LSM6DSMRESETSTEPCOUNTER
  C:A70EH         LINE#         139
  C:A70EH         LINE#         140
  C:A70EH         LINE#         141
  C:A717H         LINE#         142
  C:A71EH         LINE#         143
  -------         ENDPROC       LSM6DSMRESETSTEPCOUNTER
  -------         PROC          LSM6DSMDISABLEPEDOMETER
  C:A9EAH         LINE#         145
  C:A9EAH         LINE#         146
  C:A9EAH         LINE#         147
  -------         ENDPROC       LSM6DSMDISABLEPEDOMETER
  -------         PROC          LSM6DSMINIT
  -------         DO            
  X:122EH         SYMBOL        time_out
  -------         ENDDO         
  C:9BB0H         LINE#         149
  C:9BB0H         LINE#         150
  C:9BB0H         LINE#         151
  C:9BB9H         LINE#         152
  C:9BC0H         LINE#         153
  C:9BC6H         LINE#         154
  C:9BC6H         LINE#         155
  C:9BCCH         LINE#         156
  C:9BDAH         LINE#         157
  C:9BDCH         LINE#         158
  C:9BDCH         LINE#         159
  C:9BDFH         LINE#         160
  C:9BE6H         LINE#         161
BL51 BANKED LINKER/LOCATER V6.22                                                      06/27/2021  08:53:58  PAGE 41


  C:9BEDH         LINE#         162
  C:9BF8H         LINE#         163
  C:9BFBH         LINE#         164
  C:9C04H         LINE#         165
  C:9C07H         LINE#         166
  C:9C09H         LINE#         167
  -------         ENDPROC       LSM6DSMINIT
  -------         PROC          _IMUUPDATE
  X:1218H         SYMBOL        p
  -------         DO            
  D:0045H         SYMBOL        norm
  I:0053H         SYMBOL        ax
  I:0057H         SYMBOL        ay
  I:005BH         SYMBOL        az
  I:005FH         SYMBOL        gx
  I:0063H         SYMBOL        gy
  I:0067H         SYMBOL        gz
  I:006BH         SYMBOL        vx
  I:006FH         SYMBOL        vy
  I:0073H         SYMBOL        vz
  I:0077H         SYMBOL        ex
  I:007BH         SYMBOL        ey
  I:007FH         SYMBOL        ez
  -------         ENDDO         
  C:487DH         LINE#         175
  C:4888H         LINE#         176
  C:4888H         LINE#         183
  C:4897H         LINE#         184
  C:48B4H         LINE#         185
  C:48D1H         LINE#         187
  C:4904H         LINE#         188
  C:4937H         LINE#         189
  C:496AH         LINE#         191
  C:49CBH         LINE#         192
  C:49E0H         LINE#         193
  C:49F5H         LINE#         194
  C:4A0AH         LINE#         200
  C:4A45H         LINE#         201
  C:4A80H         LINE#         202
  C:4AFAH         LINE#         204
  C:4B2CH         LINE#         205
  C:4B5EH         LINE#         206
  C:4B90H         LINE#         208
  C:4BBDH         LINE#         209
  C:4BEAH         LINE#         210
  C:4C17H         LINE#         212
  C:4C3CH         LINE#         213
  C:4C61H         LINE#         214
  C:4C86H         LINE#         216
  C:4D0EH         LINE#         217
  C:4D8BH         LINE#         218
  C:4E00H         LINE#         219
  C:4E7DH         LINE#         221
  C:4EF8H         LINE#         222
  C:4F0DH         LINE#         223
  C:4F22H         LINE#         224
  C:4F37H         LINE#         225
BL51 BANKED LINKER/LOCATER V6.22                                                      06/27/2021  08:53:58  PAGE 42


  C:4F4CH         LINE#         227
  C:4FA1H         LINE#         228
  C:4FF6H         LINE#         229
  -------         ENDPROC       _IMUUPDATE
  -------         ENDMOD        LSM6DSM

  -------         MODULE        POWERMANAGE
  C:0000H         SYMBOL        _ICE_DUMMY_
  D:0092H         PUBLIC        P1M0
  D:0096H         PUBLIC        P2M0
  D:0091H         PUBLIC        P1M1
  D:0080H         PUBLIC        P0
  D:0095H         PUBLIC        P2M1
  D:0090H         PUBLIC        P1
  D:00A0H         PUBLIC        P2
  D:00B0H         PUBLIC        P3
  D:00C0H         PUBLIC        P4
  C:782FH         PUBLIC        GetBatteryLife
  D:00C8H         PUBLIC        P5
  D:00E8H         PUBLIC        P6
  D:00F8H         PUBLIC        P7
  D:00A8H         PUBLIC        IE
  D:00BDH         PUBLIC        ADC_RES
  D:00B8H         PUBLIC        IP
  D:00DEH         PUBLIC        ADCCFG
  C:AA49H         PUBLIC        _Enable3V3Output
  D:00D8H         PUBLIC        CCON
  B:00C0H.0       PUBLIC        EN_3V3
  D:00BCH         PUBLIC        ADC_CONTR
  D:0087H         PUBLIC        PCON
  D:0098H         PUBLIC        SCON
  C:0016H         PUBLIC        SystemPowerDown
  D:0088H         PUBLIC        TCON
  C:A396H         PUBLIC        SystemDeepPowerDown
  B:0090H.7       PUBLIC        PROG
  D:00AFH         PUBLIC        IE2
  C:A672H         PUBLIC        _ADCRead
  B:00A8H.1       PUBLIC        ET0
  C:A95CH         PUBLIC        SystemPowerOn
  C:8A3BH         PUBLIC        GetBatteryVoltage
  X:0EF1H         PUBLIC        BGV
  C:AA3CH         PUBLIC        ADCInit
  C:A929H         PUBLIC        _BatteryChargeEnable
  D:00D0H         PUBLIC        PSW
  -------         PROC          ADCINIT
  C:AA3CH         LINE#         11
  C:AA3CH         LINE#         12
  C:AA3CH         LINE#         13
  C:AA3FH         LINE#         14
  C:AA42H         LINE#         15
  -------         ENDPROC       ADCINIT
  -------         PROC          _ADCREAD
  D:0007H         SYMBOL        adc_ch
  -------         DO            
  D:0006H         SYMBOL        res
  -------         ENDDO         
  C:A672H         LINE#         21
BL51 BANKED LINKER/LOCATER V6.22                                                      06/27/2021  08:53:58  PAGE 43


  C:A672H         LINE#         22
  C:A672H         LINE#         24
  C:A677H         LINE#         25
  C:A67AH         LINE#         26
  C:A67BH         LINE#         27
  C:A67CH         LINE#         28
  C:A681H         LINE#         29
  C:A684H         LINE#         30
  C:A68CH         LINE#         31
  C:A68CH         LINE#         32
  -------         ENDPROC       _ADCREAD
  -------         PROC          _ENABLE3V3OUTPUT
  D:0007H         SYMBOL        k
  C:AA49H         LINE#         39
  C:AA49H         LINE#         40
  C:AA49H         LINE#         41
  C:AA4EH         LINE#         42
  -------         ENDPROC       _ENABLE3V3OUTPUT
  -------         PROC          _BATTERYCHARGEENABLE
  D:0007H         SYMBOL        k
  C:A929H         LINE#         52
  C:A929H         LINE#         53
  C:A929H         LINE#         54
  C:A92CH         LINE#         55
  C:A92CH         LINE#         56
  C:A92FH         LINE#         57
  C:A930H         LINE#         59
  C:A930H         LINE#         60
  C:A933H         LINE#         61
  C:A935H         LINE#         62
  C:A935H         LINE#         63
  -------         ENDPROC       _BATTERYCHARGEENABLE
  -------         PROC          GETBATTERYVOLTAGE
  -------         DO            
  X:1177H         SYMBOL        res
  X:117BH         SYMBOL        i
  X:117DH         SYMBOL        vcc
  -------         ENDDO         
  C:8A3BH         LINE#         69
  C:8A3BH         LINE#         70
  C:8A3BH         LINE#         71
  C:8A45H         LINE#         72
  C:8A4CH         LINE#         73
  C:8A50H         LINE#         74
  C:8A55H         LINE#         75
  C:8A5AH         LINE#         76
  C:8A61H         LINE#         77
  C:8A61H         LINE#         78
  C:8A8CH         LINE#         79
  C:8AABH         LINE#         80
  C:8AC4H         LINE#         81
  C:8AFEH         LINE#         82
  C:8B0FH         LINE#         83
  -------         ENDPROC       GETBATTERYVOLTAGE
  -------         PROC          GETBATTERYLIFE
  -------         DO            
  X:0EA0H         SYMBOL        first_time_flag
BL51 BANKED LINKER/LOCATER V6.22                                                      06/27/2021  08:53:58  PAGE 44


  X:0EA1H         SYMBOL        queue
  X:1145H         SYMBOL        queue_average
  X:1149H         SYMBOL        percentage
  X:114DH         SYMBOL        i
  -------         ENDDO         
  C:782FH         LINE#         93
  C:782FH         LINE#         94
  C:782FH         LINE#         97
  C:7839H         LINE#         99
  C:783EH         LINE#         100
  C:785DH         LINE#         101
  C:7879H         LINE#         102
  C:7879H         LINE#         103
  C:7883H         LINE#         104
  C:7885H         LINE#         105
  C:789DH         LINE#         106
  C:789DH         LINE#         107
  C:78A7H         LINE#         108
  C:78A7H         LINE#         109
  C:78ADH         LINE#         110
  C:78ADH         LINE#         111
  C:78AFH         LINE#         112
  C:78BEH         LINE#         113
  C:78E5H         LINE#         114
  C:78E5H         LINE#         115
  C:78F5H         LINE#         116
  C:78F5H         LINE#         117
  C:7914H         LINE#         118
  C:7944H         LINE#         119
  C:794CH         LINE#         120
  C:796FH         LINE#         121
  C:798DH         LINE#         122
  C:79A1H         LINE#         123
  C:79AFH         LINE#         124
  -------         ENDPROC       GETBATTERYLIFE
  -------         PROC          SYSTEMPOWERDOWN
  -------         DO            
  X:1239H         SYMBOL        temp
  -------         ENDDO         
  C:0016H         LINE#         130
  C:0016H         LINE#         131
  C:0016H         LINE#         132
  C:001CH         LINE#         133
  C:001FH         LINE#         134
  C:0021H         LINE#         135
  C:0024H         LINE#         136
  C:0027H         LINE#         137
  C:002AH         LINE#         138
  C:002CH         LINE#         139
  C:002FH         LINE#         140
  C:0032H         LINE#         141
  C:0034H         LINE#         142
  C:0036H         LINE#         143
  C:0039H         LINE#         144
  C:003CH         LINE#         145
  C:003FH         LINE#         146
  C:0040H         LINE#         147
BL51 BANKED LINKER/LOCATER V6.22                                                      06/27/2021  08:53:58  PAGE 45


  C:0041H         LINE#         148
  -------         ENDPROC       SYSTEMPOWERDOWN
  -------         PROC          SYSTEMDEEPPOWERDOWN
  -------         DO            
  D:0007H         SYMBOL        temp
  -------         ENDDO         
  C:A396H         LINE#         155
  C:A396H         LINE#         156
  C:A396H         LINE#         157
  C:A398H         LINE#         158
  C:A39BH         LINE#         159
  C:A39DH         LINE#         160
  C:A3A0H         LINE#         161
  C:A3A3H         LINE#         162
  C:A3A6H         LINE#         163
  C:A3A8H         LINE#         164
  C:A3AAH         LINE#         165
  C:A3ADH         LINE#         166
  C:A3AFH         LINE#         167
  C:A3B1H         LINE#         168
  C:A3B3H         LINE#         169
  C:A3B6H         LINE#         170
  C:A3B9H         LINE#         171
  C:A3BCH         LINE#         172
  C:A3BDH         LINE#         173
  C:A3BEH         LINE#         174
  C:A3C0H         LINE#         175
  -------         ENDPROC       SYSTEMDEEPPOWERDOWN
  -------         PROC          SYSTEMPOWERON
  C:A95CH         LINE#         181
  C:A95CH         LINE#         182
  C:A95CH         LINE#         183
  C:A95FH         LINE#         184
  C:A961H         LINE#         185
  C:A964H         LINE#         186
  C:A967H         LINE#         187
  -------         ENDPROC       SYSTEMPOWERON
  -------         ENDMOD        POWERMANAGE

  -------         MODULE        IIC
  C:0000H         SYMBOL        _ICE_DUMMY_
  D:0080H         PUBLIC        P0
  D:0090H         PUBLIC        P1
  C:A9F3H         PUBLIC        I2C_RecvACK
  D:00A0H         PUBLIC        P2
  D:00B0H         PUBLIC        P3
  D:00C0H         PUBLIC        P4
  D:00C8H         PUBLIC        P5
  D:00E8H         PUBLIC        P6
  C:A8AAH         PUBLIC        I2C_SendNAK
  D:00F8H         PUBLIC        P7
  D:004DH         PUBLIC        timeout
  D:00BAH         PUBLIC        P_SW2
  D:00A8H         PUBLIC        IE
  C:9697H         PUBLIC        _I2C_Read_MultiBytes
  C:A591H         PUBLIC        Wait
  D:00B8H         PUBLIC        IP
BL51 BANKED LINKER/LOCATER V6.22                                                      06/27/2021  08:53:58  PAGE 46


  C:A1F7H         PUBLIC        _Single_ReadIIC
  D:00D8H         PUBLIC        CCON
  C:A3C1H         PUBLIC        _Single_WriteIIC
  C:A843H         PUBLIC        I2C_Start
  C:A084H         PUBLIC        _I2C_NoAddr_Read_MultiBytes
  D:0098H         PUBLIC        SCON
  D:0088H         PUBLIC        TCON
  C:A8F2H         PUBLIC        _I2D_SendByte
  C:9D0CH         PUBLIC        _I2C_NoAddr_Write_MultiBytes
  C:A5CCH         PUBLIC        I2C_Stop
  C:A7E5H         PUBLIC        IIC_Init
  C:A89BH         PUBLIC        I2C_RecvHyte
  D:00D0H         PUBLIC        PSW
  C:A900H         PUBLIC        I2C_SendACK
  -------         PROC          IIC_INIT
  C:A7E5H         LINE#         9
  C:A7E5H         LINE#         10
  C:A7E5H         LINE#         11
  C:A7E8H         LINE#         12
  C:A7EEH         LINE#         13
  C:A7F3H         LINE#         14
  C:A7F6H         LINE#         15
  -------         ENDPROC       IIC_INIT
  -------         PROC          WAIT
  C:A591H         LINE#         17
  C:A591H         LINE#         18
  C:A591H         LINE#         19
  C:A597H         LINE#         20
  C:A59EH         LINE#         21
  C:A59EH         LINE#         22
  C:A5ABH         LINE#         23
  C:A5ABH         LINE#         25
  C:A5B2H         LINE#         26
  -------         ENDPROC       WAIT
  C:A83EH         SYMBOL        L?0031
  C:A83FH         SYMBOL        L?0032
  -------         PROC          L?0030
  -------         ENDPROC       L?0030
  C:A83EH         SYMBOL        L?0031
  C:A83FH         SYMBOL        L?0032
  -------         PROC          I2C_START
  C:A843H         LINE#         27
  C:A843H         LINE#         28
  C:A843H         LINE#         29
  C:A849H         LINE#         30
  -------         ENDPROC       I2C_START
  C:A5B6H         SYMBOL        L?0029
  -------         PROC          L?0028
  -------         ENDPROC       L?0028
  C:A5B6H         SYMBOL        L?0029
  -------         PROC          I2C_STOP
  C:A5CCH         LINE#         32
  C:A5CCH         LINE#         33
  C:A5CCH         LINE#         34
  C:A5D2H         LINE#         35
  -------         ENDPROC       I2C_STOP
  -------         PROC          _I2D_SENDBYTE
BL51 BANKED LINKER/LOCATER V6.22                                                      06/27/2021  08:53:58  PAGE 47


  D:0007H         SYMBOL        dat
  C:A8F2H         LINE#         37
  C:A8F2H         LINE#         38
  C:A8F2H         LINE#         39
  C:A8F7H         LINE#         40
  C:A8FDH         LINE#         41
  -------         ENDPROC       _I2D_SENDBYTE
  -------         PROC          I2C_RECVHYTE
  C:A89BH         LINE#         43
  C:A89BH         LINE#         44
  C:A89BH         LINE#         45
  C:A8A1H         LINE#         46
  C:A8A4H         LINE#         47
  C:A8A9H         LINE#         48
  -------         ENDPROC       I2C_RECVHYTE
  -------         PROC          I2C_RECVACK
  C:A9F3H         LINE#         49
  C:A9F3H         LINE#         50
  C:A9F3H         LINE#         51
  C:A9F9H         LINE#         52
  -------         ENDPROC       I2C_RECVACK
  -------         PROC          I2C_SENDACK
  C:A900H         LINE#         54
  C:A900H         LINE#         55
  C:A900H         LINE#         56
  C:A905H         LINE#         57
  C:A90BH         LINE#         58
  -------         ENDPROC       I2C_SENDACK
  -------         PROC          I2C_SENDNAK
  C:A8AAH         LINE#         60
  C:A8AAH         LINE#         61
  C:A8AAH         LINE#         62
  C:A8B0H         LINE#         63
  C:A8B6H         LINE#         64
  -------         ENDPROC       I2C_SENDNAK
  -------         PROC          _SINGLE_WRITEIIC
  D:0007H         SYMBOL        SlaveAddress
  X:1230H         SYMBOL        REG_Address
  X:1231H         SYMBOL        REG_data
  C:A3C1H         LINE#         69
  C:A3C4H         LINE#         70
  C:A3C4H         LINE#         71
  C:A3C4H         LINE#         72
  C:A3C7H         LINE#         73
  C:A3CAH         LINE#         74
  C:A3CDH         LINE#         75
  C:A3D5H         LINE#         76
  C:A3D8H         LINE#         77
  C:A3E0H         LINE#         78
  C:A3E3H         LINE#         79
  C:A3E6H         LINE#         80
  C:A3E9H         LINE#         81
  -------         ENDPROC       _SINGLE_WRITEIIC
  -------         PROC          _SINGLE_READIIC
  X:1232H         SYMBOL        SlaveAddress
  X:1233H         SYMBOL        REG_Address
  -------         DO            
BL51 BANKED LINKER/LOCATER V6.22                                                      06/27/2021  08:53:58  PAGE 48


  D:0007H         SYMBOL        REG_data
  -------         ENDDO         
  C:A1F7H         LINE#         82
  C:A1FDH         LINE#         83
  C:A1FDH         LINE#         85
  C:A1FDH         LINE#         86
  C:A200H         LINE#         87
  C:A208H         LINE#         88
  C:A20BH         LINE#         89
  C:A213H         LINE#         90
  C:A216H         LINE#         91
  C:A219H         LINE#         92
  C:A221H         LINE#         93
  C:A224H         LINE#         94
  C:A227H         LINE#         95
  C:A22AH         LINE#         96
  C:A22DH         LINE#         97
  C:A230H         LINE#         98
  C:A230H         LINE#         99
  -------         ENDPROC       _SINGLE_READIIC
  -------         PROC          _I2C_NOADDR_WRITE_MULTIBYTES
  D:0007H         SYMBOL        DeviceAddr
  X:11CCH         SYMBOL        BytesNum
  X:11CDH         SYMBOL        buf
  -------         DO            
  X:11D0H         SYMBOL        i
  -------         ENDDO         
  C:9D0CH         LINE#         100
  C:9D1AH         LINE#         101
  C:9D1AH         LINE#         102
  C:9D1BH         LINE#         103
  C:9D1BH         LINE#         104
  C:9D1EH         LINE#         105
  C:9D21H         LINE#         106
  C:9D24H         LINE#         107
  C:9D37H         LINE#         108
  C:9D37H         LINE#         109
  C:9D4EH         LINE#         110
  C:9D51H         LINE#         111
  C:9D59H         LINE#         112
  C:9D5CH         LINE#         113
  C:9D5FH         LINE#         114
  -------         ENDPROC       _I2C_NOADDR_WRITE_MULTIBYTES
  -------         PROC          _I2C_NOADDR_READ_MULTIBYTES
  D:0007H         SYMBOL        DeviceAddr
  X:11D1H         SYMBOL        BytesNum
  X:11D2H         SYMBOL        buf
  -------         DO            
  X:11D5H         SYMBOL        i
  -------         ENDDO         
  C:A084H         LINE#         115
  C:A091H         LINE#         116
  C:A091H         LINE#         118
  C:A091H         LINE#         119
  C:A094H         LINE#         120
  C:A09AH         LINE#         121
  C:A09DH         LINE#         122
BL51 BANKED LINKER/LOCATER V6.22                                                      06/27/2021  08:53:58  PAGE 49


  C:A0B0H         LINE#         123
  C:A0B0H         LINE#         124
  C:A0B3H         LINE#         125
  C:A0B3H         LINE#         126
  C:A0B6H         LINE#         127
  C:A0BEH         LINE#         128
  C:A0C1H         LINE#         129
  C:A0C1H         LINE#         130
  C:A0C4H         LINE#         131
  C:A0C7H         LINE#         132
  -------         ENDPROC       _I2C_NOADDR_READ_MULTIBYTES
  -------         PROC          _I2C_READ_MULTIBYTES
  X:118EH         SYMBOL        DeviceAddr
  X:118FH         SYMBOL        address
  X:1190H         SYMBOL        BytesNum
  X:1191H         SYMBOL        buf
  -------         DO            
  X:1194H         SYMBOL        i
  -------         ENDDO         
  C:9697H         LINE#         133
  C:969DH         LINE#         134
  C:969DH         LINE#         136
  C:969DH         LINE#         137
  C:96A0H         LINE#         138
  C:96A8H         LINE#         139
  C:96ABH         LINE#         140
  C:96B3H         LINE#         141
  C:96B6H         LINE#         142
  C:96B9H         LINE#         143
  C:96C2H         LINE#         144
  C:96D5H         LINE#         145
  C:96D5H         LINE#         146
  C:96EEH         LINE#         147
  C:96F1H         LINE#         148
  C:96F9H         LINE#         149
  C:96FFH         LINE#         150
  C:96FFH         LINE#         151
  C:9702H         LINE#         152
  C:9705H         LINE#         153
  -------         ENDPROC       _I2C_READ_MULTIBYTES
  -------         ENDMOD        IIC

  -------         MODULE        SYS
  C:0000H         SYMBOL        _ICE_DUMMY_
  D:0092H         PUBLIC        P1M0
  D:0093H         PUBLIC        P0M1
  D:0096H         PUBLIC        P2M0
  D:0091H         PUBLIC        P1M1
  D:0080H         PUBLIC        P0
  D:00B2H         PUBLIC        P3M0
  D:0095H         PUBLIC        P2M1
  D:0090H         PUBLIC        P1
  D:00B4H         PUBLIC        P4M0
  D:00B1H         PUBLIC        P3M1
  D:00A0H         PUBLIC        P2
  D:00CAH         PUBLIC        P5M0
  D:00B3H         PUBLIC        P4M1
BL51 BANKED LINKER/LOCATER V6.22                                                      06/27/2021  08:53:58  PAGE 50


  D:00B0H         PUBLIC        P3
  D:00C9H         PUBLIC        P5M1
  D:00C0H         PUBLIC        P4
  D:00C8H         PUBLIC        P5
  B:00A8H.7       PUBLIC        EA
  D:00E8H         PUBLIC        P6
  D:00F8H         PUBLIC        P7
  C:000EH         PUBLIC        MCUSoftReset
  C:009EH         PUBLIC        FeedWatchDog
  D:00A8H         PUBLIC        IE
  D:008FH         PUBLIC        INTCLKO
  D:00B8H         PUBLIC        IP
  B:0098H.1       PUBLIC        TI
  D:00D8H         PUBLIC        CCON
  C:8DF2H         PUBLIC        _EEPROMReadConfiguration
  D:0098H         PUBLIC        SCON
  C:A727H         PUBLIC        UartInit
  D:0089H         PUBLIC        TMOD
  D:0088H         PUBLIC        TCON
  B:00B0H.5       PUBLIC        P35
  C:9622H         PUBLIC        _EEPROMWriteConfiguration
  C:A36AH         PUBLIC        PinInit
  D:00AFH         PUBLIC        IE2
  D:008EH         PUBLIC        AUXR
  D:00C7H         PUBLIC        IAP_CONTR
  X:0E2BH         PUBLIC        default_config
  B:00A8H.1       PUBLIC        ET0
  B:00A8H.3       PUBLIC        ET1
  C:A936H         PUBLIC        Timer0Init
  D:008CH         PUBLIC        TH0
  D:008DH         PUBLIC        TH1
  B:0088H.0       PUBLIC        IT0
  B:00A8H.0       PUBLIC        EX0
  C:A87CH         PUBLIC        Timer3Init
  D:00D6H         PUBLIC        T2H
  B:0088H.2       PUBLIC        IT1
  B:00A8H.2       PUBLIC        EX1
  D:00D4H         PUBLIC        T3H
  D:008AH         PUBLIC        TL0
  D:008BH         PUBLIC        TL1
  D:00D7H         PUBLIC        T2L
  D:00D5H         PUBLIC        T3L
  C:AA2DH         PUBLIC        _LED
  B:0088H.4       PUBLIC        TR0
  C:A30CH         PUBLIC        SysInit
  B:0088H.6       PUBLIC        TR1
  D:00C1H         PUBLIC        WDT_CONTR
  D:00D1H         PUBLIC        T4T3M
  C:0056H         PUBLIC        EnableWatchDog
  D:009AH         PUBLIC        S2CON
  C:A7C0H         PUBLIC        Uart2Init
  C:A968H         PUBLIC        InitConfig
  D:00D0H         PUBLIC        PSW
  D:0094H         PUBLIC        P0M0
  -------         PROC          PININIT
  C:A36AH         LINE#         44
  C:A36AH         LINE#         45
BL51 BANKED LINKER/LOCATER V6.22                                                      06/27/2021  08:53:58  PAGE 51


  C:A36AH         LINE#         48
  C:A36DH         LINE#         49
  C:A36FH         LINE#         50
  C:A371H         LINE#         57
  C:A373H         LINE#         58
  C:A375H         LINE#         59
  C:A378H         LINE#         66
  C:A37BH         LINE#         67
  C:A37EH         LINE#         68
  C:A380H         LINE#         75
  C:A383H         LINE#         76
  C:A385H         LINE#         77
  C:A387H         LINE#         80
  C:A38AH         LINE#         81
  C:A38CH         LINE#         82
  C:A38EH         LINE#         84
  C:A391H         LINE#         85
  C:A393H         LINE#         86
  C:A395H         LINE#         87
  -------         ENDPROC       PININIT
  -------         PROC          TIMER0INIT
  C:A936H         LINE#         89
  C:A936H         LINE#         90
  C:A936H         LINE#         91
  C:A939H         LINE#         92
  C:A93CH         LINE#         93
  C:A93EH         LINE#         94
  C:A940H         LINE#         95
  C:A942H         LINE#         96
  -------         ENDPROC       TIMER0INIT
  -------         PROC          TIMER3INIT
  C:A87CH         LINE#         97
  C:A87CH         LINE#         98
  C:A87CH         LINE#         99
  C:A87FH         LINE#         100
  C:A882H         LINE#         101
  C:A885H         LINE#         102
  C:A888H         LINE#         103
  C:A88BH         LINE#         104
  -------         ENDPROC       TIMER3INIT
  -------         PROC          UARTINIT
  C:A727H         LINE#         175
  C:A727H         LINE#         176
  C:A727H         LINE#         177
  C:A72AH         LINE#         178
  C:A72DH         LINE#         179
  C:A730H         LINE#         180
  C:A733H         LINE#         181
  C:A736H         LINE#         182
  C:A739H         LINE#         183
  C:A73BH         LINE#         184
  C:A73DH         LINE#         185
  C:A73FH         LINE#         186
  -------         ENDPROC       UARTINIT
  -------         PROC          UART2INIT
  C:A7C0H         LINE#         190
  C:A7C0H         LINE#         191
BL51 BANKED LINKER/LOCATER V6.22                                                      06/27/2021  08:53:58  PAGE 52


  C:A7C0H         LINE#         192
  C:A7C3H         LINE#         193
  C:A7C6H         LINE#         194
  C:A7C9H         LINE#         195
  C:A7CCH         LINE#         196
  C:A7CFH         LINE#         197
  C:A7D2H         LINE#         198
  -------         ENDPROC       UART2INIT
  -------         PROC          INITCONFIG
  C:A968H         LINE#         200
  C:A968H         LINE#         201
  C:A968H         LINE#         202
  C:A96AH         LINE#         203
  C:A96CH         LINE#         204
  C:A96EH         LINE#         205
  C:A970H         LINE#         206
  C:A973H         LINE#         209
  -------         ENDPROC       INITCONFIG
  -------         PROC          MCUSOFTRESET
  C:000EH         LINE#         210
  C:000EH         LINE#         211
  C:000EH         LINE#         212
  C:0011H         LINE#         213
  -------         ENDPROC       MCUSOFTRESET
  -------         PROC          ENABLEWATCHDOG
  C:0056H         LINE#         215
  C:0056H         LINE#         216
  C:0056H         LINE#         217
  C:0059H         LINE#         218
  -------         ENDPROC       ENABLEWATCHDOG
  -------         PROC          FEEDWATCHDOG
  C:009EH         LINE#         219
  C:009EH         LINE#         220
  C:009EH         LINE#         221
  C:00A1H         LINE#         222
  -------         ENDPROC       FEEDWATCHDOG
  -------         PROC          _EEPROMWRITECONFIGURATION
  X:11D6H         SYMBOL        config
  -------         DO            
  D:0007H         SYMBOL        i
  X:11D9H         SYMBOL        temp
  -------         ENDDO         
  C:9622H         LINE#         238
  C:962DH         LINE#         239
  C:962DH         LINE#         240
  C:962FH         LINE#         241
  C:9633H         LINE#         242
  C:9633H         LINE#         243
  C:9659H         LINE#         244
  C:9675H         LINE#         245
  C:967CH         LINE#         246
  -------         ENDPROC       _EEPROMWRITECONFIGURATION
  -------         PROC          _EEPROMREADCONFIGURATION
  X:11B6H         SYMBOL        config
  -------         DO            
  X:11B9H         SYMBOL        i
  X:11BAH         SYMBOL        temp
BL51 BANKED LINKER/LOCATER V6.22                                                      06/27/2021  08:53:58  PAGE 53


  -------         ENDDO         
  C:8DF2H         LINE#         249
  C:8DFDH         LINE#         250
  C:8DFDH         LINE#         251
  C:8E00H         LINE#         252
  C:8E04H         LINE#         253
  C:8E13H         LINE#         254
  C:8E1DH         LINE#         255
  C:8E46H         LINE#         256
  C:8E64H         LINE#         257
  C:8E67H         LINE#         259
  C:8E67H         LINE#         260
  C:8E6CH         LINE#         261
  C:8E9EH         LINE#         262
  C:8EA0H         LINE#         263
  C:8EA0H         LINE#         264
  -------         ENDPROC       _EEPROMREADCONFIGURATION
  -------         PROC          _LED
  D:0007H         SYMBOL        k
  C:AA2DH         LINE#         266
  C:AA2DH         LINE#         267
  C:AA2DH         LINE#         268
  C:AA34H         LINE#         269
  -------         ENDPROC       _LED
  -------         PROC          SYSINIT
  C:A30CH         LINE#         271
  C:A30CH         LINE#         272
  C:A30CH         LINE#         273
  C:A30FH         LINE#         274
  C:A312H         LINE#         275
  C:A315H         LINE#         276
  C:A318H         LINE#         277
  C:A31BH         LINE#         278
  C:A31EH         LINE#         280
  C:A321H         LINE#         281
  C:A324H         LINE#         282
  C:A32DH         LINE#         285
  C:A332H         LINE#         287
  C:A339H         LINE#         289
  C:A33BH         LINE#         290
  -------         ENDPROC       SYSINIT
  -------         ENDMOD        SYS

  -------         MODULE        EEPROM
  C:0000H         SYMBOL        _ICE_DUMMY_
  D:0080H         PUBLIC        P0
  D:0090H         PUBLIC        P1
  D:00A0H         PUBLIC        P2
  D:00B0H         PUBLIC        P3
  C:A90EH         PUBLIC        DisableEEPROM
  D:00C0H         PUBLIC        P4
  D:00C8H         PUBLIC        P5
  B:00A8H.7       PUBLIC        EA
  D:00E8H         PUBLIC        P6
  D:00F8H         PUBLIC        P7
  D:00A8H         PUBLIC        IE
  D:00C5H         PUBLIC        IAP_CMD
BL51 BANKED LINKER/LOCATER V6.22                                                      06/27/2021  08:53:58  PAGE 54


  C:A4FEH         PUBLIC        _EEPROM_SectorErase
  C:9FB6H         PUBLIC        _EEPROM_read_n
  D:00B8H         PUBLIC        IP
  D:00C3H         PUBLIC        IAP_ADDRH
  D:00D8H         PUBLIC        CCON
  D:00C4H         PUBLIC        IAP_ADDRL
  C:9FFBH         PUBLIC        _EEPROM_write_n
  D:0098H         PUBLIC        SCON
  D:0088H         PUBLIC        TCON
  D:00C7H         PUBLIC        IAP_CONTR
  D:00C2H         PUBLIC        IAP_DATA
  D:00C6H         PUBLIC        IAP_TRIG
  B:00D0H.5       PUBLIC        F0
  D:00D0H         PUBLIC        PSW
  -------         PROC          DISABLEEEPROM
  C:A90EH         LINE#         12
  C:A90EH         LINE#         13
  C:A90EH         LINE#         14
  C:A911H         LINE#         15
  C:A913H         LINE#         16
  C:A915H         LINE#         17
  C:A918H         LINE#         18
  C:A91BH         LINE#         19
  -------         ENDPROC       DISABLEEEPROM
  -------         PROC          _EEPROM_READ_N
  D:0004H         SYMBOL        EE_address
  D:0001H         SYMBOL        DataAddress
  X:119AH         SYMBOL        number
  C:9FB6H         LINE#         29
  C:9FBAH         LINE#         30
  C:9FBAH         LINE#         31
  C:9FBEH         LINE#         32
  C:9FC0H         LINE#         33
  C:9FC3H         LINE#         34
  C:9FC6H         LINE#         36
  C:9FC6H         LINE#         37
  C:9FC9H         LINE#         38
  C:9FCDH         LINE#         39
  C:9FD3H         LINE#         40
  C:9FD4H         LINE#         41
  C:9FD9H         LINE#         42
  C:9FDEH         LINE#         43
  C:9FE5H         LINE#         44
  C:9FF3H         LINE#         46
  C:9FF6H         LINE#         47
  C:9FFAH         LINE#         48
  -------         ENDPROC       _EEPROM_READ_N
  -------         PROC          _EEPROM_SECTORERASE
  D:0004H         SYMBOL        EE_address
  C:A4FEH         LINE#         57
  C:A502H         LINE#         58
  C:A502H         LINE#         59
  C:A506H         LINE#         60
  C:A509H         LINE#         61
  C:A50DH         LINE#         62
  C:A510H         LINE#         63
  C:A513H         LINE#         64
BL51 BANKED LINKER/LOCATER V6.22                                                      06/27/2021  08:53:58  PAGE 55


  C:A519H         LINE#         65
  C:A51AH         LINE#         66
  C:A51DH         LINE#         67
  C:A523H         LINE#         68
  -------         ENDPROC       _EEPROM_SECTORERASE
  -------         PROC          _EEPROM_WRITE_N
  D:0004H         SYMBOL        EE_address
  D:0001H         SYMBOL        DataAddress
  X:11A1H         SYMBOL        number
  C:9FFBH         LINE#         78
  C:9FFFH         LINE#         79
  C:9FFFH         LINE#         80
  C:A003H         LINE#         81
  C:A005H         LINE#         82
  C:A008H         LINE#         83
  C:A00BH         LINE#         85
  C:A00BH         LINE#         86
  C:A00EH         LINE#         87
  C:A012H         LINE#         88
  C:A017H         LINE#         89
  C:A01DH         LINE#         90
  C:A01EH         LINE#         91
  C:A023H         LINE#         92
  C:A02AH         LINE#         93
  C:A038H         LINE#         94
  C:A03BH         LINE#         95
  C:A03FH         LINE#         96
  -------         ENDPROC       _EEPROM_WRITE_N
  -------         ENDMOD        EEPROM

  -------         MODULE        BUZZER
  C:0000H         SYMBOL        _ICE_DUMMY_
  D:0080H         PUBLIC        P0
  D:0090H         PUBLIC        P1
  D:00A0H         PUBLIC        P2
  D:00B0H         PUBLIC        P3
  D:00C0H         PUBLIC        P4
  D:00C8H         PUBLIC        P5
  D:00E8H         PUBLIC        P6
  D:00F8H         PUBLIC        P7
  D:00FEH         PUBLIC        PWMCR
  D:00BAH         PUBLIC        P_SW2
  C:A796H         PUBLIC        Bee
  D:00A8H         PUBLIC        IE
  D:00B8H         PUBLIC        IP
  C:A26AH         PUBLIC        BuzzerInit
  D:00D8H         PUBLIC        CCON
  B:00A0H.6       PUBLIC        buzzer
  B:00A0H.0       PUBLIC        P20
  D:0098H         PUBLIC        SCON
  X:121BH         PUBLIC        bee_mode
  D:0088H         PUBLIC        TCON
  X:121CH         PUBLIC        bee_time
  D:00AFH         PUBLIC        IE2
  D:00D2H         PUBLIC        T4H
  C:A9FCH         PUBLIC        _EnableBuzzer
  D:00D3H         PUBLIC        T4L
BL51 BANKED LINKER/LOCATER V6.22                                                      06/27/2021  08:53:58  PAGE 56


  D:00D1H         PUBLIC        T4T3M
  B:0023H.5       PUBLIC        bee_en
  C:A781H         PUBLIC        _BuzzerOnOff
  C:930FH         PUBLIC        TM4_Isr
  C:A8B9H         PUBLIC        Beebeebee
  D:00EFH         PUBLIC        AUXINTIF
  D:00D0H         PUBLIC        PSW
  -------         PROC          BUZZERINIT
  C:A26AH         LINE#         18
  C:A26AH         LINE#         19
  C:A26AH         LINE#         20
  C:A26DH         LINE#         22
  C:A272H         LINE#         23
  C:A27CH         LINE#         25
  C:A282H         LINE#         27
  C:A289H         LINE#         28
  C:A291H         LINE#         30
  C:A294H         LINE#         32
  C:A297H         LINE#         33
  C:A29AH         LINE#         34
  C:A29DH         LINE#         35
  C:A2A0H         LINE#         36
  C:A2A2H         LINE#         37
  -------         ENDPROC       BUZZERINIT
  -------         PROC          _BUZZERONOFF
  D:0007H         SYMBOL        b
  C:A781H         LINE#         38
  C:A781H         LINE#         39
  C:A781H         LINE#         40
  C:A784H         LINE#         41
  C:A788H         LINE#         42
  C:A788H         LINE#         43
  C:A78BH         LINE#         44
  C:A78DH         LINE#         46
  C:A78DH         LINE#         47
  C:A790H         LINE#         48
  C:A792H         LINE#         49
  C:A792H         LINE#         50
  C:A795H         LINE#         51
  -------         ENDPROC       _BUZZERONOFF
  -------         PROC          TM4_ISR
  C:930FH         LINE#         52
  C:931CH         LINE#         54
  C:931FH         LINE#         55
  C:9326H         LINE#         56
  C:9326H         LINE#         57
  C:9330H         LINE#         58
  C:9330H         LINE#         59
  C:9336H         LINE#         60
  C:933AH         LINE#         61
  C:933DH         LINE#         62
  C:933DH         LINE#         63
  C:933FH         LINE#         64
  C:9344H         LINE#         65
  C:9344H         LINE#         66
  C:9354H         LINE#         67
  C:9354H         LINE#         68
BL51 BANKED LINKER/LOCATER V6.22                                                      06/27/2021  08:53:58  PAGE 57


  C:935FH         LINE#         69
  C:935FH         LINE#         70
  C:9377H         LINE#         71
  C:938AH         LINE#         72
  C:938AH         LINE#         73
  C:938AH         LINE#         74
  C:9396H         LINE#         75
  C:9396H         LINE#         76
  C:939DH         LINE#         77
  C:939DH         LINE#         78
  C:939DH         LINE#         79
  -------         ENDPROC       TM4_ISR
  -------         PROC          BEE
  C:A796H         LINE#         80
  C:A796H         LINE#         81
  C:A796H         LINE#         82
  C:A79BH         LINE#         83
  C:A79FH         LINE#         84
  C:A7A2H         LINE#         85
  C:A7A2H         LINE#         86
  C:A7A7H         LINE#         87
  C:A7AAH         LINE#         88
  C:A7AAH         LINE#         89
  -------         ENDPROC       BEE
  -------         PROC          BEEBEEBEE
  C:A8B9H         LINE#         90
  C:A8B9H         LINE#         91
  C:A8B9H         LINE#         92
  C:A8BFH         LINE#         93
  C:A8C4H         LINE#         95
  C:A8C7H         LINE#         96
  -------         ENDPROC       BEEBEEBEE
  -------         PROC          _ENABLEBUZZER
  D:0007H         SYMBOL        k
  C:A9FCH         LINE#         97
  C:A9FCH         LINE#         98
  C:A9FCH         LINE#         99
  C:A9FFH         LINE#         100
  C:AA02H         LINE#         102
  C:AA04H         LINE#         103
  -------         ENDPROC       _ENABLEBUZZER
  -------         ENDMOD        BUZZER

  -------         MODULE        DELAY
  C:0000H         SYMBOL        _ICE_DUMMY_
  C:A6C2H         PUBLIC        _Delay1ms
  C:A7ABH         PUBLIC        _Delay1us
  -------         PROC          _DELAY1MS
  D:0006H         SYMBOL        t
  -------         DO            
  D:0005H         SYMBOL        i
  D:0004H         SYMBOL        j
  -------         ENDDO         
  C:A6C2H         LINE#         3
  C:A6C2H         LINE#         4
  C:A6C2H         LINE#         6
  C:A6CBH         LINE#         7
BL51 BANKED LINKER/LOCATER V6.22                                                      06/27/2021  08:53:58  PAGE 58


  C:A6CBH         LINE#         8
  C:A6CCH         LINE#         9
  C:A6CEH         LINE#         10
  C:A6D0H         LINE#         12
  C:A6D0H         LINE#         13
  C:A6D2H         LINE#         14
  C:A6D4H         LINE#         16
  C:A6DBH         LINE#         17
  -------         ENDPROC       _DELAY1MS
  -------         PROC          _DELAY1US
  D:0006H         SYMBOL        t
  -------         DO            
  D:0005H         SYMBOL        i
  -------         ENDDO         
  C:A7ABH         LINE#         18
  C:A7ABH         LINE#         19
  C:A7ABH         LINE#         21
  C:A7B4H         LINE#         22
  C:A7B4H         LINE#         23
  C:A7B6H         LINE#         24
  C:A7B8H         LINE#         25
  C:A7BFH         LINE#         26
  -------         ENDPROC       _DELAY1US
  -------         ENDMOD        DELAY

  -------         MODULE        DISPLAY
  C:0000H         SYMBOL        _ICE_DUMMY_
  X:0008H         PUBLIC        main_cache
  D:0080H         PUBLIC        P0
  D:0090H         PUBLIC        P1
  D:00A0H         PUBLIC        P2
  D:00B0H         PUBLIC        P3
  D:00C0H         PUBLIC        P4
  D:00C8H         PUBLIC        P5
  D:00E8H         PUBLIC        P6
  D:00F8H         PUBLIC        P7
  C:3C33H         PUBLIC        F6X8
  D:00A8H         PUBLIC        IE
  D:00B8H         PUBLIC        IP
  C:63E7H         PUBLIC        _DrawLine
  C:60A7H         PUBLIC        _ShowString
  D:00D8H         PUBLIC        CCON
  C:6F63H         PUBLIC        _DrawSelectionFrame
  C:7DEEH         PUBLIC        _ScreeRollDown
  C:5572H         PUBLIC        _ScreenPushAnimation
  C:6D65H         PUBLIC        _DrawArm
  C:A97FH         PUBLIC        _ScreenSetBrightness
  C:9A3CH         PUBLIC        _ScreenRefreshArea
  D:0098H         PUBLIC        SCON
  D:0088H         PUBLIC        TCON
  C:9CD2H         PUBLIC        _DrawDot
  C:A740H         PUBLIC        _ScreenSetDirection
  C:94B4H         PUBLIC        _ClearCacheArea
  C:3E6DH         PUBLIC        F8X16
  C:A9BCH         PUBLIC        _ScreenOnOff
  C:A112H         PUBLIC        _ClearCache
  C:AA4FH         PUBLIC        _ScreenRefreshAll
BL51 BANKED LINKER/LOCATER V6.22                                                      06/27/2021  08:53:58  PAGE 59


  X:0408H         PUBLIC        sub_cache1
  X:0808H         PUBLIC        sub_cache2
  C:6669H         PUBLIC        _DisplayTime
  C:9D60H         PUBLIC        _DisplayInit
  C:445DH         PUBLIC        F16X48
  C:AA52H         PUBLIC        _ScreenSetInverse
  C:A2DAH         PUBLIC        SaveScreen
  D:00D0H         PUBLIC        PSW
  C:7155H         PUBLIC        _BMPToCache
  -------         PROC          _DISPLAYINIT
  X:121EH         SYMBOL        config
  C:9D60H         LINE#         19
  C:9D6BH         LINE#         20
  C:9D6BH         LINE#         21
  C:9D6EH         LINE#         22
  C:9D83H         LINE#         23
  C:9D98H         LINE#         24
  C:9DADH         LINE#         25
  -------         ENDPROC       _DISPLAYINIT
  -------         PROC          _BMPTOCACHE
  X:10F8H         SYMBOL        x
  X:10F9H         SYMBOL        y
  X:10FAH         SYMBOL        width
  X:10FBH         SYMBOL        height
  X:10FCH         SYMBOL        buf1
  X:10FFH         SYMBOL        buf2
  X:1102H         SYMBOL        k
  -------         DO            
  D:0024H         SYMBOL        i
  D:0025H         SYMBOL        j
  D:0026H         SYMBOL        num1
  D:0028H         SYMBOL        num2
  D:002AH         SYMBOL        num3
  -------         ENDDO         
  C:7155H         LINE#         36
  C:7160H         LINE#         37
  C:7160H         LINE#         40
  C:716CH         LINE#         41
  C:7175H         LINE#         42
  C:7175H         LINE#         43
  C:7187H         LINE#         44
  C:7187H         LINE#         45
  C:71A8H         LINE#         46
  C:71B7H         LINE#         47
  C:71C5H         LINE#         48
  C:7203H         LINE#         49
  C:7208H         LINE#         50
  C:7208H         LINE#         52
  C:7208H         LINE#         53
  C:721BH         LINE#         54
  C:721BH         LINE#         55
  C:723CH         LINE#         56
  C:724BH         LINE#         57
  C:7259H         LINE#         58
  C:72A6H         LINE#         59
  C:72ABH         LINE#         60
  C:72ABH         LINE#         61
BL51 BANKED LINKER/LOCATER V6.22                                                      06/27/2021  08:53:58  PAGE 60


  C:72BEH         LINE#         62
  C:72BEH         LINE#         63
  C:72DFH         LINE#         64
  C:72EEH         LINE#         65
  C:72FCH         LINE#         66
  C:733AH         LINE#         67
  C:733FH         LINE#         68
  -------         ENDPROC       _BMPTOCACHE
  -------         PROC          L?0255
  -------         ENDPROC       L?0255
  -------         PROC          _CLEARCACHE
  X:1221H         SYMBOL        buf
  -------         DO            
  D:004FH         SYMBOL        i
  -------         ENDDO         
  C:A112H         LINE#         74
  C:A11DH         LINE#         75
  C:A11DH         LINE#         77
  C:A122H         LINE#         78
  C:A147H         LINE#         79
  -------         ENDPROC       _CLEARCACHE
  -------         PROC          _CLEARCACHEAREA
  X:11A3H         SYMBOL        x
  X:11A4H         SYMBOL        y
  X:11A5H         SYMBOL        width
  X:11A6H         SYMBOL        height
  X:11A7H         SYMBOL        buf1
  -------         DO            
  D:001AH         SYMBOL        i
  D:001BH         SYMBOL        j
  D:001CH         SYMBOL        num1
  D:001EH         SYMBOL        num2
  -------         ENDDO         
  C:94B4H         LINE#         86
  C:94BFH         LINE#         87
  C:94BFH         LINE#         90
  C:94CBH         LINE#         91
  C:94DBH         LINE#         92
  C:94DBH         LINE#         93
  C:94FCH         LINE#         94
  C:950AH         LINE#         95
  C:950AH         LINE#         96
  C:9528H         LINE#         97
  C:952CH         LINE#         98
  C:9530H         LINE#         99
  -------         ENDPROC       _CLEARCACHEAREA
  -------         PROC          SAVESCREEN
  -------         DO            
  D:0051H         SYMBOL        n
  -------         ENDDO         
  C:A2DAH         LINE#         105
  C:A2DAH         LINE#         106
  C:A2DAH         LINE#         108
  C:A2DFH         LINE#         109
  C:A30BH         LINE#         110
  -------         ENDPROC       SAVESCREEN
  -------         PROC          _SCREENREFRESHALL
BL51 BANKED LINKER/LOCATER V6.22                                                      06/27/2021  08:53:58  PAGE 61


  D:0001H         SYMBOL        cache_buf
  C:AA4FH         LINE#         116
  C:AA4FH         LINE#         117
  C:AA4FH         LINE#         118
  -------         ENDPROC       _SCREENREFRESHALL
  -------         PROC          _SCREENREFRESHAREA
  X:11E7H         SYMBOL        x
  D:0005H         SYMBOL        y
  X:11E9H         SYMBOL        width
  X:11EAH         SYMBOL        height
  -------         DO            
  D:0049H         SYMBOL        i
  D:004AH         SYMBOL        j
  D:004BH         SYMBOL        n
  -------         ENDDO         
  C:9A3CH         LINE#         126
  C:9A46H         LINE#         127
  C:9A46H         LINE#         130
  C:9A55H         LINE#         131
  C:9A55H         LINE#         132
  C:9A5FH         LINE#         133
  C:9A6AH         LINE#         134
  C:9A78H         LINE#         135
  C:9A98H         LINE#         136
  C:9A9CH         LINE#         137
  -------         ENDPROC       _SCREENREFRESHAREA
  -------         PROC          _SCREENPUSHANIMATION
  X:11EBH         SYMBOL        cache
  X:11EEH         SYMBOL        direction
  -------         DO            
  D:002CH         SYMBOL        n
  D:002DH         SYMBOL        i
  D:002EH         SYMBOL        j
  D:0030H         SYMBOL        num1
  D:0032H         SYMBOL        num2
  -------         ENDDO         
  C:5572H         LINE#         148
  C:5580H         LINE#         149
  C:5580H         LINE#         153
  C:5585H         LINE#         154
  C:5585H         LINE#         155
  C:5587H         LINE#         156
  C:5587H         LINE#         157
  C:558AH         LINE#         158
  C:558AH         LINE#         159
  C:5595H         LINE#         160
  C:559EH         LINE#         161
  C:55AFH         LINE#         162
  C:55AFH         LINE#         163
  C:55E3H         LINE#         164
  C:55EDH         LINE#         165
  C:55F4H         LINE#         166
  C:5603H         LINE#         167
  C:5618H         LINE#         168
  C:561BH         LINE#         169
  C:561BH         LINE#         170
  C:5667H         LINE#         171
BL51 BANKED LINKER/LOCATER V6.22                                                      06/27/2021  08:53:58  PAGE 62


  C:566EH         LINE#         172
  C:5677H         LINE#         173
  C:5684H         LINE#         174
  C:5684H         LINE#         175
  C:568FH         LINE#         176
  C:568FH         LINE#         177
  C:5691H         LINE#         178
  C:5691H         LINE#         179
  C:5694H         LINE#         180
  C:5694H         LINE#         181
  C:56ACH         LINE#         182
  C:56B5H         LINE#         183
  C:56C6H         LINE#         184
  C:5704H         LINE#         185
  C:570CH         LINE#         186
  C:572AH         LINE#         187
  C:573FH         LINE#         188
  C:5742H         LINE#         189
  C:5795H         LINE#         190
  C:579EH         LINE#         191
  C:57ABH         LINE#         192
  C:57ABH         LINE#         193
  C:57B6H         LINE#         194
  C:57B6H         LINE#         195
  C:57B8H         LINE#         196
  C:57B8H         LINE#         197
  C:57BBH         LINE#         198
  C:57BBH         LINE#         199
  C:57C6H         LINE#         200
  C:57CFH         LINE#         201
  C:57E0H         LINE#         202
  C:5806H         LINE#         203
  C:5833H         LINE#         204
  C:586FH         LINE#         205
  C:587AH         LINE#         206
  C:5883H         LINE#         207
  C:5890H         LINE#         208
  C:5890H         LINE#         209
  C:589BH         LINE#         210
  C:589BH         LINE#         211
  C:589DH         LINE#         212
  C:589DH         LINE#         213
  C:58A0H         LINE#         214
  C:58A0H         LINE#         215
  C:58ABH         LINE#         216
  C:58B4H         LINE#         217
  C:58C4H         LINE#         218
  C:58EAH         LINE#         219
  C:5922H         LINE#         220
  C:594EH         LINE#         221
  C:5959H         LINE#         222
  C:5962H         LINE#         223
  C:596EH         LINE#         224
  C:596EH         LINE#         225
  -------         ENDPROC       _SCREENPUSHANIMATION
  -------         PROC          _SCREEROLLDOWN
  X:11EFH         SYMBOL        buf2
BL51 BANKED LINKER/LOCATER V6.22                                                      06/27/2021  08:53:58  PAGE 63


  X:11F2H         SYMBOL        num
  -------         DO            
  D:0034H         SYMBOL        n
  D:0035H         SYMBOL        i
  D:0036H         SYMBOL        j
  D:0038H         SYMBOL        num1
  D:003AH         SYMBOL        num2
  -------         ENDDO         
  C:7DEEH         LINE#         231
  C:7DFCH         LINE#         232
  C:7DFCH         LINE#         235
  C:7E0DH         LINE#         236
  C:7E0DH         LINE#         237
  C:7E10H         LINE#         238
  C:7E10H         LINE#         239
  C:7E28H         LINE#         240
  C:7E31H         LINE#         241
  C:7E42H         LINE#         242
  C:7E7FH         LINE#         243
  C:7E87H         LINE#         244
  C:7EA6H         LINE#         245
  C:7EB6H         LINE#         246
  C:7EB9H         LINE#         247
  C:7F0AH         LINE#         248
  C:7F13H         LINE#         249
  C:7F18H         LINE#         250
  -------         ENDPROC       _SCREEROLLDOWN
  -------         PROC          _SCREENONOFF
  D:0007H         SYMBOL        k
  C:A9BCH         LINE#         257
  C:A9BCH         LINE#         258
  C:A9BCH         LINE#         259
  C:A9BFH         LINE#         260
  C:A9C2H         LINE#         262
  C:A9C5H         LINE#         263
  -------         ENDPROC       _SCREENONOFF
  -------         PROC          _SCREENSETBRIGHTNESS
  D:0007H         SYMBOL        screen_brightness
  C:A97FH         LINE#         270
  C:A97FH         LINE#         271
  C:A97FH         LINE#         272
  C:A985H         LINE#         273
  C:A987H         LINE#         274
  -------         ENDPROC       _SCREENSETBRIGHTNESS
  -------         PROC          _SCREENSETDIRECTION
  D:0007H         SYMBOL        k
  C:A740H         LINE#         283
  C:A740H         LINE#         284
  C:A740H         LINE#         285
  C:A743H         LINE#         286
  C:A743H         LINE#         287
  C:A748H         LINE#         288
  C:A74AH         LINE#         289
  C:A74CH         LINE#         291
  C:A74CH         LINE#         292
  C:A751H         LINE#         293
  C:A756H         LINE#         294
BL51 BANKED LINKER/LOCATER V6.22                                                      06/27/2021  08:53:58  PAGE 64


  C:A756H         LINE#         295
  -------         ENDPROC       _SCREENSETDIRECTION
  -------         PROC          _SCREENSETINVERSE
  D:0007H         SYMBOL        k
  C:AA52H         LINE#         304
  C:AA52H         LINE#         305
  C:AA52H         LINE#         306
  -------         ENDPROC       _SCREENSETINVERSE
  -------         PROC          _DISPLAYTIME
  D:0007H         SYMBOL        hour
  D:0005H         SYMBOL        min
  D:0003H         SYMBOL        sec
  -------         DO            
  X:10B0H         SYMBOL        n
  X:10B1H         SYMBOL        i
  D:0003H         SYMBOL        j
  D:0001H         SYMBOL        num3
  X:10B2H         SYMBOL        k
  X:10B4H         SYMBOL        num1
  X:10B6H         SYMBOL        num2
  X:10B8H         SYMBOL        temp
  X:10BAH         SYMBOL        buf
  X:0000H         SYMBOL        last_buf
  -------         ENDDO         
  C:6669H         LINE#         315
  C:6669H         LINE#         316
  C:6669H         LINE#         323
  C:6672H         LINE#         324
  C:667BH         LINE#         325
  C:667FH         LINE#         326
  C:6686H         LINE#         327
  C:668FH         LINE#         328
  C:6693H         LINE#         329
  C:669AH         LINE#         330
  C:66A3H         LINE#         331
  C:66B8H         LINE#         332
  C:66B8H         LINE#         333
  C:66DAH         LINE#         334
  C:66DAH         LINE#         336
  C:66DFH         LINE#         337
  C:66DFH         LINE#         338
  C:66E1H         LINE#         339
  C:66E1H         LINE#         340
  C:6718H         LINE#         341
  C:672AH         LINE#         342
  C:6748H         LINE#         343
  C:6748H         LINE#         344
  C:676AH         LINE#         345
  C:6784H         LINE#         346
  C:6794H         LINE#         347
  C:679DH         LINE#         348
  C:67D4H         LINE#         349
  C:67ECH         LINE#         350
  C:67F5H         LINE#         351
  C:67FCH         LINE#         352
  C:67FCH         LINE#         353
  C:6873H         LINE#         354
BL51 BANKED LINKER/LOCATER V6.22                                                      06/27/2021  08:53:58  PAGE 65


  C:6890H         LINE#         355
  C:6899H         LINE#         356
  C:68A8H         LINE#         357
  C:68A8H         LINE#         358
  C:68C9H         LINE#         359
  C:68D2H         LINE#         360
  -------         ENDPROC       _DISPLAYTIME
  -------         PROC          _SHOWSTRING
  X:1103H         SYMBOL        x
  X:1104H         SYMBOL        y
  X:1105H         SYMBOL        str
  X:1108H         SYMBOL        cache_buf
  X:110BH         SYMBOL        front_size
  X:110CH         SYMBOL        inverse
  X:110DH         SYMBOL        do_refresh
  -------         DO            
  D:0010H         SYMBOL        temp
  D:0011H         SYMBOL        str_len
  D:0012H         SYMBOL        n
  D:0013H         SYMBOL        i
  D:0014H         SYMBOL        j
  D:0015H         SYMBOL        line
  D:0016H         SYMBOL        num1
  D:0018H         SYMBOL        num2
  -------         ENDDO         
  C:60A7H         LINE#         376
  C:60B8H         LINE#         377
  C:60B8H         LINE#         378
  C:60BBH         LINE#         379
  C:60BDH         LINE#         383
  C:60C4H         LINE#         384
  C:60C7H         LINE#         385
  C:60DDH         LINE#         386
  C:60DDH         LINE#         387
  C:60DFH         LINE#         388
  C:60E1H         LINE#         389
  C:60ECH         LINE#         390
  C:60ECH         LINE#         391
  C:60F8H         LINE#         392
  C:60F8H         LINE#         393
  C:6107H         LINE#         394
  C:610FH         LINE#         395
  C:610FH         LINE#         396
  C:6112H         LINE#         397
  C:6112H         LINE#         398
  C:6136H         LINE#         399
  C:6141H         LINE#         400
  C:6144H         LINE#         401
  C:619CH         LINE#         402
  C:61A7H         LINE#         403
  C:61B9H         LINE#         404
  C:61B9H         LINE#         405
  C:61C4H         LINE#         406
  C:61C7H         LINE#         407
  C:61C7H         LINE#         408
  C:61CAH         LINE#         410
  C:61CAH         LINE#         411
BL51 BANKED LINKER/LOCATER V6.22                                                      06/27/2021  08:53:58  PAGE 66


  C:61CDH         LINE#         412
  C:61CDH         LINE#         413
  C:61FCH         LINE#         414
  C:6207H         LINE#         415
  C:620AH         LINE#         416
  C:6269H         LINE#         417
  C:6274H         LINE#         418
  C:6274H         LINE#         419
  C:6279H         LINE#         420
  C:6279H         LINE#         422
  C:6279H         LINE#         423
  C:6286H         LINE#         424
  C:6286H         LINE#         425
  C:6294H         LINE#         426
  C:629CH         LINE#         427
  C:629CH         LINE#         428
  C:62B8H         LINE#         429
  C:62BBH         LINE#         430
  C:630BH         LINE#         431
  C:6321H         LINE#         432
  C:6321H         LINE#         433
  C:632CH         LINE#         434
  C:632FH         LINE#         435
  C:632FH         LINE#         436
  C:6332H         LINE#         438
  C:6332H         LINE#         439
  C:635AH         LINE#         440
  C:635DH         LINE#         441
  C:63B4H         LINE#         442
  C:63B4H         LINE#         443
  C:63B9H         LINE#         444
  C:63B9H         LINE#         445
  C:63BFH         LINE#         446
  C:63CDH         LINE#         447
  C:63D4H         LINE#         448
  C:63DEH         LINE#         450
  C:63E6H         LINE#         451
  -------         ENDPROC       _SHOWSTRING
  C:9CBDH         SYMBOL        L?0254
  -------         PROC          L?0253
  -------         ENDPROC       L?0253
  C:9CBDH         SYMBOL        L?0254
  -------         PROC          _DRAWDOT
  D:0007H         SYMBOL        x
  D:0005H         SYMBOL        y
  C:9CD2H         LINE#         452
  C:9CD2H         LINE#         453
  C:9CD2H         LINE#         454
  C:9D0BH         LINE#         455
  -------         ENDPROC       _DRAWDOT
  -------         PROC          _DRAWLINE
  X:10ECH         SYMBOL        x1
  X:10EDH         SYMBOL        y1
  X:10EEH         SYMBOL        x2
  X:10EFH         SYMBOL        y2
  -------         DO            
  X:10F0H         SYMBOL        k
BL51 BANKED LINKER/LOCATER V6.22                                                      06/27/2021  08:53:58  PAGE 67


  X:10F4H         SYMBOL        b
  -------         ENDDO         
  C:63E7H         LINE#         456
  C:63F6H         LINE#         457
  C:63F6H         LINE#         460
  C:63FCH         LINE#         461
  C:63FCH         LINE#         462
  C:645FH         LINE#         463
  C:649BH         LINE#         464
  C:64D7H         LINE#         465
  C:64D7H         LINE#         466
  C:64E4H         LINE#         467
  C:64E4H         LINE#         468
  C:64F4H         LINE#         469
  C:6531H         LINE#         470
  C:6531H         LINE#         472
  C:6531H         LINE#         473
  C:6541H         LINE#         474
  C:657EH         LINE#         475
  C:657EH         LINE#         476
  C:657EH         LINE#         478
  C:657EH         LINE#         479
  C:658BH         LINE#         480
  C:658BH         LINE#         481
  C:659CH         LINE#         482
  C:65D5H         LINE#         483
  C:65D5H         LINE#         485
  C:65D5H         LINE#         486
  C:65E6H         LINE#         487
  C:661FH         LINE#         488
  C:661FH         LINE#         489
  C:661FH         LINE#         490
  C:661FH         LINE#         492
  C:661FH         LINE#         493
  C:662CH         LINE#         494
  C:662CH         LINE#         495
  C:663AH         LINE#         496
  C:664AH         LINE#         497
  C:664AH         LINE#         499
  C:664AH         LINE#         500
  C:6658H         LINE#         501
  C:6668H         LINE#         502
  C:6668H         LINE#         503
  C:6668H         LINE#         504
  -------         ENDPROC       _DRAWLINE
  -------         PROC          _DRAWARM
  X:1062H         SYMBOL        x
  X:1063H         SYMBOL        y
  X:1064H         SYMBOL        radius
  X:1065H         SYMBOL        angle
  -------         DO            
  X:1067H         SYMBOL        k
  X:106BH         SYMBOL        rad
  X:106FH         SYMBOL        x0
  X:1073H         SYMBOL        y0
  -------         ENDDO         
  C:6D65H         LINE#         525
BL51 BANKED LINKER/LOCATER V6.22                                                      06/27/2021  08:53:58  PAGE 68


  C:6D70H         LINE#         526
  C:6D70H         LINE#         528
  C:6D8BH         LINE#         529
  C:6DA2H         LINE#         530
  C:6DD5H         LINE#         531
  C:6E0EH         LINE#         532
  C:6E29H         LINE#         533
  C:6E64H         LINE#         534
  C:6E94H         LINE#         535
  C:6EBAH         LINE#         537
  C:6EECH         LINE#         538
  C:6F11H         LINE#         539
  -------         ENDPROC       _DRAWARM
  -------         PROC          _DRAWSELECTIONFRAME
  D:0004H         SYMBOL        x
  D:0003H         SYMBOL        y
  C:6F63H         LINE#         541
  C:6F67H         LINE#         542
  C:6F67H         LINE#         543
  C:6F67H         LINE#         544
  C:6F67H         LINE#         545
  C:6F67H         LINE#         546
  C:6F67H         LINE#         547
  C:6F6AH         LINE#         548
  C:6F73H         LINE#         549
  C:6F7DH         LINE#         550
  C:6F87H         LINE#         551
  C:6F91H         LINE#         552
  C:6F99H         LINE#         553
  C:6FA2H         LINE#         554
  C:6FABH         LINE#         555
  C:6FB4H         LINE#         556
  C:6FBDH         LINE#         557
  C:6FC7H         LINE#         558
  C:6FD1H         LINE#         559
  C:6FDBH         LINE#         561
  C:6FDFH         LINE#         562
  C:6FE5H         LINE#         563
  C:6FEBH         LINE#         564
  C:6FF2H         LINE#         565
  C:6FF9H         LINE#         566
  C:7000H         LINE#         567
  C:7009H         LINE#         568
  C:7013H         LINE#         569
  C:701DH         LINE#         570
  C:7027H         LINE#         571
  C:702FH         LINE#         572
  C:7038H         LINE#         573
  C:7041H         LINE#         574
  C:704AH         LINE#         575
  C:7053H         LINE#         576
  C:705DH         LINE#         577
  C:7067H         LINE#         578
  C:7071H         LINE#         580
  C:7075H         LINE#         581
  C:707BH         LINE#         582
  C:7081H         LINE#         583
BL51 BANKED LINKER/LOCATER V6.22                                                      06/27/2021  08:53:58  PAGE 69


  C:7088H         LINE#         584
  C:708FH         LINE#         585
  C:7096H         LINE#         586
  C:709FH         LINE#         587
  C:70A6H         LINE#         588
  C:70ADH         LINE#         589
  C:70B4H         LINE#         590
  C:70B9H         LINE#         591
  C:70C2H         LINE#         592
  C:70CBH         LINE#         593
  C:70D4H         LINE#         594
  C:70DDH         LINE#         595
  C:70E7H         LINE#         596
  C:70F1H         LINE#         597
  C:70FBH         LINE#         599
  C:70FFH         LINE#         600
  C:7102H         LINE#         601
  C:7102H         LINE#         602
  C:7102H         LINE#         603
  C:7102H         LINE#         604
  C:7105H         LINE#         605
  C:710BH         LINE#         606
  C:710BH         LINE#         607
  C:710BH         LINE#         608
  C:710EH         LINE#         609
  C:7113H         LINE#         610
  C:711CH         LINE#         611
  C:7125H         LINE#         612
  C:712EH         LINE#         613
  C:7137H         LINE#         614
  C:7141H         LINE#         615
  C:714BH         LINE#         616
  -------         ENDPROC       _DRAWSELECTIONFRAME
  -------         ENDMOD        DISPLAY

  -------         MODULE        MAIN
  C:0000H         SYMBOL        _ICE_DUMMY_
  D:0080H         PUBLIC        P0
  D:0090H         PUBLIC        P1
  B:0020H.0       PUBLIC        action
  D:00A0H         PUBLIC        P2
  X:0CE6H         PUBLIC        battery_life
  D:00B0H         PUBLIC        P3
  D:00C0H         PUBLIC        P4
  C:AA58H         PUBLIC        LED1_ON
  D:00C8H         PUBLIC        P5
  D:00E8H         PUBLIC        P6
  D:00F8H         PUBLIC        P7
  X:0CEAH         PUBLIC        LSM6DSM
  B:0020H.1       PUBLIC        alarm_flag
  C:1A01H         PUBLIC        ALARM_MODE_MENU
  X:0D02H         PUBLIC        autowake_cnt
  D:00A8H         PUBLIC        IE
  X:0D04H         PUBLIC        magnet_cal_data
  C:827AH         PUBLIC        SensorInit
  X:0D16H         PUBLIC        Cont
  B:0020H.2       PUBLIC        sleep_flag
BL51 BANKED LINKER/LOCATER V6.22                                                      06/27/2021  08:53:58  PAGE 70


  D:00B8H         PUBLIC        IP
  B:0020H.3       PUBLIC        tick_1ms
  C:00DFH         PUBLIC        BLUETOOTH_SMALL_ICON
  C:1DF1H         PUBLIC        COMPASS_ICON
  D:00D8H         PUBLIC        CCON
  C:1A51H         PUBLIC        CELSIUS_ICON
  C:A943H         PUBLIC        main
  C:85A2H         PUBLIC        BreathingLamp
  B:0020H.4       PUBLIC        tick_8ms
  X:0D17H         PUBLIC        func_index
  C:00FFH         PUBLIC        BATTERY_LIFE_ICON
  C:9DB2H         PUBLIC        INT1_Isr
  C:A5D5H         PUBLIC        INT2_Isr
  X:0D18H         PUBLIC        Trg
  X:0D19H         PUBLIC        sleep_time
  C:AA55H         PUBLIC        INT3_Isr
  B:0020H.5       PUBLIC        ON_OPEN
  C:A56DH         PUBLIC        KeyScan
  D:0098H         PUBLIC        SCON
  D:0088H         PUBLIC        TCON
  B:00A0H.3       PUBLIC        P23
  C:1941H         PUBLIC        SETTING_MENU
  C:0141H         PUBLIC        FUNC_ICON
  B:00B0H.5       PUBLIC        P35
  B:00C8H.4       PUBLIC        P54
  B:00C8H.5       PUBLIC        P55
  C:1BF1H         PUBLIC        NESW
  B:0020H.6       PUBLIC        screen_on_flag
  C:1541H         PUBLIC        SUB_MENU_BMP
  C:AA5BH         PUBLIC        LED1_OFF
  X:0D1BH         PUBLIC        timer_cnt
  B:0020H.7       PUBLIC        radio_on_flag
  C:1A71H         PUBLIC        T_H_P_A
  B:0021H.0       PUBLIC        tick_20ms
  C:00E7H         PUBLIC        CLOCK_SMALL_ICON
  C:00EFH         PUBLIC        RADIO_SMALL_ICON
  B:0021H.1       PUBLIC        PCF8563_int_flag
  C:19E1H         PUBLIC        CIRCLE16X16
  B:0021H.2       PUBLIC        timer_on_flag
  C:0117H         PUBLIC        WEEKDAY_IN_STR
  B:0021H.3       PUBLIC        ON_RETURN
  X:0D1DH         PUBLIC        func_num
  C:A68DH         PUBLIC        TM0_Isr
  C:815BH         PUBLIC        TM3_Ist
  B:0021H.4       PUBLIC        powerdown_flag
  X:0D1EH         PUBLIC        RTC
  B:0021H.5       PUBLIC        deep_powerdown_flag
  C:00F7H         PUBLIC        TIMER_SMALL_ICON
  X:0D27H         PUBLIC        inactive_time
  D:00EFH         PUBLIC        AUXINTIF
  X:0D29H         PUBLIC        BME280
  B:0021H.6       PUBLIC        ON_CLOSE
  X:0D35H         PUBLIC        config
  D:00D0H         PUBLIC        PSW
  B:0021H.7       PUBLIC        active_flag
  -------         PROC          KEYSCAN
  -------         DO            
BL51 BANKED LINKER/LOCATER V6.22                                                      06/27/2021  08:53:58  PAGE 71


  D:0005H         SYMBOL        dat
  -------         ENDDO         
  C:A56DH         LINE#         67
  C:A56DH         LINE#         68
  C:A56DH         LINE#         69
  C:A56FH         LINE#         70
  C:A572H         LINE#         71
  C:A573H         LINE#         72
  C:A576H         LINE#         73
  C:A57AH         LINE#         74
  C:A57DH         LINE#         75
  C:A581H         LINE#         76
  C:A58BH         LINE#         77
  C:A590H         LINE#         78
  -------         ENDPROC       KEYSCAN
  -------         PROC          TM3_IST
  -------         DO            
  X:0CE2H         SYMBOL        t_count
  X:0CE4H         SYMBOL        t_key_press
  -------         ENDDO         
  C:815BH         LINE#         80
  C:8168H         LINE#         84
  C:816BH         LINE#         85
  C:8174H         LINE#         86
  C:8174H         LINE#         87
  C:817DH         LINE#         88
  C:8180H         LINE#         89
  C:8180H         LINE#         90
  C:8193H         LINE#         91
  C:8193H         LINE#         92
  C:8196H         LINE#         93
  C:819CH         LINE#         94
  C:819CH         LINE#         95
  C:819FH         LINE#         96
  C:81A1H         LINE#         97
  C:81AAH         LINE#         98
  C:81AAH         LINE#         99
  C:81AFH         LINE#         100
  C:81B2H         LINE#         101
  C:81B2H         LINE#         102
  C:81B4H         LINE#         103
  C:81B8H         LINE#         104
  C:81B8H         LINE#         105
  C:81B8H         LINE#         106
  C:81B8H         LINE#         107
  C:81BFH         LINE#         108
  C:81BFH         LINE#         109
  C:81D4H         LINE#         110
  C:81D9H         LINE#         111
  C:81DBH         LINE#         113
  C:81E2H         LINE#         114
  C:81E2H         LINE#         115
  C:81E4H         LINE#         116
  C:81F0H         LINE#         117
  C:81F2H         LINE#         118
  C:81FDH         LINE#         119
  C:81FFH         LINE#         120
BL51 BANKED LINKER/LOCATER V6.22                                                      06/27/2021  08:53:58  PAGE 72


  C:8215H         LINE#         121
  C:8215H         LINE#         122
  C:821BH         LINE#         123
  C:821EH         LINE#         124
  C:821EH         LINE#         125
  C:8239H         LINE#         126
  C:8239H         LINE#         127
  C:823BH         LINE#         128
  C:8242H         LINE#         129
  C:8244H         LINE#         130
  C:8244H         LINE#         131
  C:8244H         LINE#         132
  C:8247H         LINE#         133
  C:8247H         LINE#         134
  C:8262H         LINE#         135
  C:8262H         LINE#         136
  C:8264H         LINE#         137
  C:826BH         LINE#         138
  C:826DH         LINE#         139
  C:826FH         LINE#         140
  C:826FH         LINE#         141
  C:826FH         LINE#         142
  C:826FH         LINE#         143
  -------         ENDPROC       TM3_IST
  -------         PROC          TM0_ISR
  C:A68DH         LINE#         149
  C:A693H         LINE#         151
  C:A6A1H         LINE#         152
  -------         ENDPROC       TM0_ISR
  -------         PROC          INT1_ISR
  C:9DB2H         LINE#         153
  C:9DBFH         LINE#         155
  C:9DC1H         LINE#         156
  C:9DC3H         LINE#         157
  C:9DC6H         LINE#         158
  C:9DCFH         LINE#         159
  C:9DD6H         LINE#         161
  C:9DDCH         LINE#         162
  C:9DE6H         LINE#         163
  C:9DE6H         LINE#         164
  C:9DE8H         LINE#         165
  C:9DEAH         LINE#         166
  C:9DF1H         LINE#         167
  C:9DF5H         LINE#         168
  C:9DF7H         LINE#         169
  C:9DF7H         LINE#         170
  -------         ENDPROC       INT1_ISR
  -------         PROC          INT2_ISR
  C:A5D5H         LINE#         171
  C:A5DBH         LINE#         173
  C:A5DDH         LINE#         174
  C:A5E3H         LINE#         175
  C:A5EAH         LINE#         177
  C:A5F0H         LINE#         178
  -------         ENDPROC       INT2_ISR
  -------         PROC          INT3_ISR
  C:AA55H         LINE#         179
BL51 BANKED LINKER/LOCATER V6.22                                                      06/27/2021  08:53:58  PAGE 73


  C:AA55H         LINE#         181
  C:AA57H         LINE#         182
  -------         ENDPROC       INT3_ISR
  -------         PROC          SENSORINIT
  -------         DO            
  X:11F3H         SYMBOL        y
  X:11F4H         SYMBOL        time_out
  X:11F6H         SYMBOL        error_count
  -------         ENDDO         
  C:827AH         LINE#         183
  C:827AH         LINE#         184
  C:827AH         LINE#         185
  C:827FH         LINE#         186
  C:8287H         LINE#         187
  C:828AH         LINE#         188
  C:8290H         LINE#         189
  C:8290H         LINE#         190
  C:82BEH         LINE#         191
  C:82C4H         LINE#         192
  C:82C4H         LINE#         193
  C:82CAH         LINE#         194
  C:82CAH         LINE#         195
  C:82F8H         LINE#         196
  C:82FEH         LINE#         197
  C:82FEH         LINE#         198
  C:8304H         LINE#         199
  C:8304H         LINE#         200
  C:8332H         LINE#         201
  C:8338H         LINE#         202
  C:8338H         LINE#         203
  C:833EH         LINE#         204
  C:833EH         LINE#         205
  C:836CH         LINE#         206
  C:8372H         LINE#         207
  C:8372H         LINE#         208
  C:8378H         LINE#         209
  C:8378H         LINE#         210
  C:837EH         LINE#         211
  C:837EH         LINE#         212
  C:8384H         LINE#         213
  C:8392H         LINE#         214
  C:8393H         LINE#         216
  C:8393H         LINE#         217
  -------         ENDPROC       SENSORINIT
  -------         PROC          LED1_ON
  C:AA58H         LINE#         224
  C:AA58H         LINE#         225
  C:AA58H         LINE#         226
  C:AA5AH         LINE#         227
  -------         ENDPROC       LED1_ON
  -------         PROC          LED1_OFF
  C:AA5BH         LINE#         228
  C:AA5BH         LINE#         229
  C:AA5BH         LINE#         230
  C:AA5DH         LINE#         231
  -------         ENDPROC       LED1_OFF
  -------         PROC          BREATHINGLAMP
BL51 BANKED LINKER/LOCATER V6.22                                                      06/27/2021  08:53:58  PAGE 74


  -------         DO            
  X:11BCH         SYMBOL        i
  X:11BEH         SYMBOL        j
  X:11C0H         SYMBOL        num
  -------         ENDDO         
  C:85A2H         LINE#         233
  C:85A2H         LINE#         234
  C:85A2H         LINE#         235
  C:85B4H         LINE#         236
  C:85D0H         LINE#         237
  C:85D0H         LINE#         238
  C:85EDH         LINE#         239
  C:85EDH         LINE#         240
  C:85F9H         LINE#         241
  C:85F9H         LINE#         242
  C:85FCH         LINE#         243
  C:85FCH         LINE#         244
  C:85FEH         LINE#         246
  C:85FEH         LINE#         247
  C:8601H         LINE#         248
  C:8608H         LINE#         249
  C:8608H         LINE#         250
  C:8618H         LINE#         251
  C:8628H         LINE#         252
  C:862FH         LINE#         253
  C:864BH         LINE#         254
  C:864BH         LINE#         255
  C:8668H         LINE#         256
  C:8668H         LINE#         257
  C:8674H         LINE#         258
  C:8674H         LINE#         259
  C:8677H         LINE#         260
  C:8677H         LINE#         261
  C:8679H         LINE#         264
  C:8679H         LINE#         265
  C:867CH         LINE#         266
  C:8683H         LINE#         268
  C:8683H         LINE#         269
  C:8693H         LINE#         270
  C:86A3H         LINE#         271
  -------         ENDPROC       BREATHINGLAMP
  -------         PROC          MAIN
  C:A943H         LINE#         274
  C:A943H         LINE#         275
  C:A943H         LINE#         297
  C:A946H         LINE#         298
  C:A948H         LINE#         302
  C:A948H         LINE#         304
  C:A948H         LINE#         305
  C:A94BH         LINE#         306
  C:A94EH         LINE#         2486
  -------         ENDPROC       MAIN
  -------         ENDMOD        MAIN

  -------         MODULE        ?C?FPADD
  C:1FF8H         PUBLIC        ?C?FPADD
  C:1FF4H         PUBLIC        ?C?FPSUB
BL51 BANKED LINKER/LOCATER V6.22                                                      06/27/2021  08:53:58  PAGE 75


  -------         ENDMOD        ?C?FPADD

  -------         MODULE        ?C?FPMUL
  C:20E9H         PUBLIC        ?C?FPMUL
  -------         ENDMOD        ?C?FPMUL

  -------         MODULE        ?C?FPDIV
  C:21F2H         PUBLIC        ?C?FPDIV
  -------         ENDMOD        ?C?FPDIV

  -------         MODULE        ?C?FPCMP
  C:2291H         PUBLIC        ?C?FPCMP
  C:228FH         PUBLIC        ?C?FPCMP3
  -------         ENDMOD        ?C?FPCMP

  -------         MODULE        ?C?FPNEG
  C:2308H         PUBLIC        ?C?FPNEG
  -------         ENDMOD        ?C?FPNEG

  -------         MODULE        ?C?FCAST
  C:2323H         PUBLIC        ?C?FCASTC
  C:231EH         PUBLIC        ?C?FCASTI
  C:2319H         PUBLIC        ?C?FCASTL
  -------         ENDMOD        ?C?FCAST

  -------         MODULE        ?C?CASTF
  C:2357H         PUBLIC        ?C?CASTF
  -------         ENDMOD        ?C?CASTF

  -------         MODULE        PRINTF
  X:0F5DH         PUBLIC        ?_PRINTF?BYTE
  X:0F5DH         PUBLIC        ?_SPRINTF?BYTE
  C:515AH         PUBLIC        _PRINTF
  C:5154H         PUBLIC        _SPRINTF
  -------         ENDMOD        PRINTF

  -------         MODULE        SQRT
  C:8EA5H         PUBLIC        _SQRT
  -------         ENDMOD        SQRT

  -------         MODULE        ATAN2
  X:117FH         PUBLIC        ?_atan2?BYTE
  C:9140H         PUBLIC        _atan2
  -------         ENDMOD        ATAN2

  -------         MODULE        SIN
  C:76EFH         PUBLIC        _COS
  C:7705H         PUBLIC        _SIN
  C:7741H         PUBLIC        _TAN
  -------         ENDMOD        SIN

  -------         MODULE        ATAN
  C:7F39H         PUBLIC        _ATAN
  -------         ENDMOD        ATAN

  -------         MODULE        ASIN
  C:A148H         PUBLIC        _ASIN
BL51 BANKED LINKER/LOCATER V6.22                                                      06/27/2021  08:53:58  PAGE 76


  -------         ENDMOD        ASIN

  -------         MODULE        ?C?FPROUND
  C:23D8H         PUBLIC        ?C?FPROUND
  -------         ENDMOD        ?C?FPROUND

  -------         MODULE        ?C?FPCONVERT
  C:2415H         PUBLIC        ?C?FPCONVERT
  -------         ENDMOD        ?C?FPCONVERT

  -------         MODULE        ?C?FTNPWR
  C:2597H         PUBLIC        ?C?FTNPWR
  -------         ENDMOD        ?C?FTNPWR

  -------         MODULE        ?C?COPY
  C:26A7H         PUBLIC        ?C?COPY
  -------         ENDMOD        ?C?COPY

  -------         MODULE        ?C?CLDPTR
  C:26CDH         PUBLIC        ?C?CLDPTR
  -------         ENDMOD        ?C?CLDPTR

  -------         MODULE        ?C?CLDOPTR
  C:26E6H         PUBLIC        ?C?CLDOPTR
  -------         ENDMOD        ?C?CLDOPTR

  -------         MODULE        ?C?CILDOPTR
  C:2713H         PUBLIC        ?C?CILDOPTR
  -------         ENDMOD        ?C?CILDOPTR

  -------         MODULE        ?C?CSTPTR
  C:2746H         PUBLIC        ?C?CSTPTR
  -------         ENDMOD        ?C?CSTPTR

  -------         MODULE        ?C?CSTOPTR
  C:2758H         PUBLIC        ?C?CSTOPTR
  -------         ENDMOD        ?C?CSTOPTR

  -------         MODULE        ?C?UIDIV
  C:277AH         PUBLIC        ?C?UIDIV
  -------         ENDMOD        ?C?UIDIV

  -------         MODULE        ?C?SIDIV
  C:27CFH         PUBLIC        ?C?SIDIV
  -------         ENDMOD        ?C?SIDIV

  -------         MODULE        ?C?IILDX
  C:2805H         PUBLIC        ?C?IILDX
  -------         ENDMOD        ?C?IILDX

  -------         MODULE        ?C?ILDIX
  C:281BH         PUBLIC        ?C?ILDIX
  -------         ENDMOD        ?C?ILDIX

  -------         MODULE        ?C?ILDPTR
  C:2831H         PUBLIC        ?C?ILDPTR
  -------         ENDMOD        ?C?ILDPTR
BL51 BANKED LINKER/LOCATER V6.22                                                      06/27/2021  08:53:58  PAGE 77



  -------         MODULE        ?C?ILDOPTR
  C:285CH         PUBLIC        ?C?ILDOPTR
  -------         ENDMOD        ?C?ILDOPTR

  -------         MODULE        ?C?ISTPTR
  C:2894H         PUBLIC        ?C?ISTPTR
  -------         ENDMOD        ?C?ISTPTR

  -------         MODULE        ?C?ISTOPTR
  C:28B3H         PUBLIC        ?C?ISTOPTR
  -------         ENDMOD        ?C?ISTOPTR

  -------         MODULE        ?C?LMUL
  C:28E0H         PUBLIC        ?C?LMUL
  -------         ENDMOD        ?C?LMUL

  -------         MODULE        ?C?SLDIV
  C:A0C8H         PUBLIC        ?C?SLDIV
  -------         ENDMOD        ?C?SLDIV

  -------         MODULE        ?C?LNEG
  C:292FH         PUBLIC        ?C?LNEG
  -------         ENDMOD        ?C?LNEG

  -------         MODULE        ?C?SLCMP
  C:293DH         PUBLIC        ?C?SLCMP
  -------         ENDMOD        ?C?SLCMP

  -------         MODULE        ?C?SLSHR
  C:2953H         PUBLIC        ?C?SLSHR
  -------         ENDMOD        ?C?SLSHR

  -------         MODULE        ?C?LSHL
  C:2967H         PUBLIC        ?C?LSHL
  -------         ENDMOD        ?C?LSHL

  -------         MODULE        ?C?LLDPTR
  C:297AH         PUBLIC        ?C?LLDPTR
  -------         ENDMOD        ?C?LLDPTR

  -------         MODULE        ?C?LLDOPTR
  C:299AH         PUBLIC        ?C?LLDOPTR
  -------         ENDMOD        ?C?LLDOPTR

  -------         MODULE        ?C?LSTPTR
  C:29CAH         PUBLIC        ?C?LSTPTR
  -------         ENDMOD        ?C?LSTPTR

  -------         MODULE        ?C?LSTOPTR
  C:29E4H         PUBLIC        ?C?LSTOPTR
  -------         ENDMOD        ?C?LSTOPTR

  -------         MODULE        ?C?LLDIDATA
  C:2A08H         PUBLIC        ?C?LLDIDATA
  -------         ENDMOD        ?C?LLDIDATA

BL51 BANKED LINKER/LOCATER V6.22                                                      06/27/2021  08:53:58  PAGE 78


  -------         MODULE        ?C?LLDXDATA
  C:2A14H         PUBLIC        ?C?LLDXDATA
  -------         ENDMOD        ?C?LLDXDATA

  -------         MODULE        ?C?LLDCODE
  C:2A20H         PUBLIC        ?C?LLDCODE
  -------         ENDMOD        ?C?LLDCODE

  -------         MODULE        ?C?LLDIDATA0
  C:2A30H         PUBLIC        ?C?LLDIDATA0
  -------         ENDMOD        ?C?LLDIDATA0

  -------         MODULE        ?C?LLDXDATA0
  C:2A3DH         PUBLIC        ?C?LLDXDATA0
  -------         ENDMOD        ?C?LLDXDATA0

  -------         MODULE        ?C?LLDCODE0
  C:2A49H         PUBLIC        ?C?LLDCODE0
  -------         ENDMOD        ?C?LLDCODE0

  -------         MODULE        ?C?LSTIDATA
  C:2A59H         PUBLIC        ?C?LSTIDATA
  -------         ENDMOD        ?C?LSTIDATA

  -------         MODULE        ?C?LSTXDATA
  C:2A65H         PUBLIC        ?C?LSTXDATA
  -------         ENDMOD        ?C?LSTXDATA

  -------         MODULE        ?C?LSTKXDATA
  C:2A71H         PUBLIC        ?C?LSTKXDATA
  -------         ENDMOD        ?C?LSTKXDATA

  -------         MODULE        ?C?OFFXADD
  C:2AA2H         PUBLIC        ?C?OFFXADD
  -------         ENDMOD        ?C?OFFXADD

  -------         MODULE        ?C?PLDIXDATA
  C:2AAEH         PUBLIC        ?C?PLDIXDATA
  -------         ENDMOD        ?C?PLDIXDATA

  -------         MODULE        ?C?PSTXDATA
  C:2AC5H         PUBLIC        ?C?PSTXDATA
  -------         ENDMOD        ?C?PSTXDATA

  -------         MODULE        ?C?CCASE
  C:2ACEH         PUBLIC        ?C?CCASE
  -------         ENDMOD        ?C?CCASE

  -------         MODULE        PUTCHAR
  C:A4D7H         PUBLIC        _PUTCHAR
  -------         ENDMOD        PUTCHAR

  -------         MODULE        STRCAT
  X:114EH         PUBLIC        ?_strcat?BYTE
  C:97DFH         PUBLIC        _strcat
  -------         ENDMOD        STRCAT

BL51 BANKED LINKER/LOCATER V6.22                                                      06/27/2021  08:53:58  PAGE 79


  -------         MODULE        ?C?STRCPY
  C:2BC0H         PUBLIC        ?C?STRCPY
  -------         ENDMOD        ?C?STRCPY

  -------         MODULE        ?C?MEMCMP
  C:2D63H         PUBLIC        ?C?MEMCMP
  -------         ENDMOD        ?C?MEMCMP

  -------         MODULE        ?C?ULDIV
  C:2DC3H         PUBLIC        ?C?ULDIV
  -------         ENDMOD        ?C?ULDIV

  -------         MODULE        ?C?LLDPDATA
  C:2E55H         PUBLIC        ?C?LLDPDATA
  -------         ENDMOD        ?C?LLDPDATA

  -------         MODULE        ?C?LSTPDATA
  C:2E61H         PUBLIC        ?C?LSTPDATA
  -------         ENDMOD        ?C?LSTPDATA

*** WARNING L16: UNCALLED SEGMENT, IGNORED FOR OVERLAY PROCESS
    SEGMENT: ?PR?_PW02GETRXDATA?PW02

*** WARNING L16: UNCALLED SEGMENT, IGNORED FOR OVERLAY PROCESS
    SEGMENT: ?PR?PW02REST?PW02

*** WARNING L16: UNCALLED SEGMENT, IGNORED FOR OVERLAY PROCESS
    SEGMENT: ?PR?_PW02SETMODE?PW02

*** WARNING L16: UNCALLED SEGMENT, IGNORED FOR OVERLAY PROCESS
    SEGMENT: ?PR?PW02CHECKCONNECTION?PW02

*** WARNING L16: UNCALLED SEGMENT, IGNORED FOR OVERLAY PROCESS
    SEGMENT: ?PR?PW02INIT?PW02

*** WARNING L16: UNCALLED SEGMENT, IGNORED FOR OVERLAY PROCESS
    SEGMENT: ?PR?_RDA5807MSETVOLUME?RDA5807M

*** WARNING L16: UNCALLED SEGMENT, IGNORED FOR OVERLAY PROCESS
    SEGMENT: ?PR?_RDA5807MSEEK?RDA5807M

*** WARNING L16: UNCALLED SEGMENT, IGNORED FOR OVERLAY PROCESS
    SEGMENT: ?PR?_RDA5807MSETFQ?RDA5807M

*** WARNING L16: UNCALLED SEGMENT, IGNORED FOR OVERLAY PROCESS
    SEGMENT: ?PR?RDA5807MGETCURRENTFQ?RDA5807M

*** WARNING L16: UNCALLED SEGMENT, IGNORED FOR OVERLAY PROCESS
    SEGMENT: ?PR?RDA5807MGETCURRENTRSSI?RDA5807M

*** WARNING L16: UNCALLED SEGMENT, IGNORED FOR OVERLAY PROCESS
    SEGMENT: ?PR?RDA5807MSETMUTE?RDA5807M

*** WARNING L16: UNCALLED SEGMENT, IGNORED FOR OVERLAY PROCESS
    SEGMENT: ?PR?RDA5807MPOWERUP?RDA5807M

*** WARNING L16: UNCALLED SEGMENT, IGNORED FOR OVERLAY PROCESS
BL51 BANKED LINKER/LOCATER V6.22                                                      06/27/2021  08:53:58  PAGE 80


    SEGMENT: ?PR?RDA5807MPOWERDOWN?RDA5807M

*** WARNING L16: UNCALLED SEGMENT, IGNORED FOR OVERLAY PROCESS
    SEGMENT: ?PR?_PCF8563READTIME?PCF8563

*** WARNING L16: UNCALLED SEGMENT, IGNORED FOR OVERLAY PROCESS
    SEGMENT: ?PR?_PCF8563WRITETIME?PCF8563

*** WARNING L16: UNCALLED SEGMENT, IGNORED FOR OVERLAY PROCESS
    SEGMENT: ?PR?_PCF8563WRITEDATE?PCF8563

*** WARNING L16: UNCALLED SEGMENT, IGNORED FOR OVERLAY PROCESS
    SEGMENT: ?PR?_PCF8563SETALARM?PCF8563

*** WARNING L16: UNCALLED SEGMENT, IGNORED FOR OVERLAY PROCESS
    SEGMENT: ?PR?PCF8563CLEARALARMFLAG?PCF8563

*** WARNING L16: UNCALLED SEGMENT, IGNORED FOR OVERLAY PROCESS
    SEGMENT: ?PR?PCF8563DISABLEALARM?PCF8563

*** WARNING L16: UNCALLED SEGMENT, IGNORED FOR OVERLAY PROCESS
    SEGMENT: ?PR?_PCF8563ENABLETIMER?PCF8563

*** WARNING L16: UNCALLED SEGMENT, IGNORED FOR OVERLAY PROCESS
    SEGMENT: ?PR?PCF8563CLEARTIMERFLAG?PCF8563

*** WARNING L16: UNCALLED SEGMENT, IGNORED FOR OVERLAY PROCESS
    SEGMENT: ?PR?PCF8563DISABLETIMER?PCF8563

*** WARNING L16: UNCALLED SEGMENT, IGNORED FOR OVERLAY PROCESS
    SEGMENT: ?PR?PCF8563READINTSRC?PCF8563

*** WARNING L16: UNCALLED SEGMENT, IGNORED FOR OVERLAY PROCESS
    SEGMENT: ?PR?PCF8563INIT?PCF8563

*** WARNING L16: UNCALLED SEGMENT, IGNORED FOR OVERLAY PROCESS
    SEGMENT: ?PR?_BME280SINGLEMEASUREMENT?BME280

*** WARNING L16: UNCALLED SEGMENT, IGNORED FOR OVERLAY PROCESS
    SEGMENT: ?PR?_BME280CONTINUOUSMEASUREMENT?BME280

*** WARNING L16: UNCALLED SEGMENT, IGNORED FOR OVERLAY PROCESS
    SEGMENT: ?PR?RESETMATRIX?ELLIPSOID_FITTING

*** WARNING L16: UNCALLED SEGMENT, IGNORED FOR OVERLAY PROCESS
    SEGMENT: ?PR?_CALCDATA_INPUT?ELLIPSOID_FITTING

*** WARNING L16: UNCALLED SEGMENT, IGNORED FOR OVERLAY PROCESS
    SEGMENT: ?PR?_ELLIPSOID_FITTING_PROCESS?ELLIPSOID_FITTING

*** WARNING L16: UNCALLED SEGMENT, IGNORED FOR OVERLAY PROCESS
    SEGMENT: ?PR?_READ_HMC5883L?HMC5883L

*** WARNING L16: UNCALLED SEGMENT, IGNORED FOR OVERLAY PROCESS
    SEGMENT: ?PR?_HMC5883L_SET_CALIBRATION_VALUE?HMC5883L

*** WARNING L16: UNCALLED SEGMENT, IGNORED FOR OVERLAY PROCESS
BL51 BANKED LINKER/LOCATER V6.22                                                      06/27/2021  08:53:58  PAGE 81


    SEGMENT: ?PR?_HMC5883L_SET_MODE?HMC5883L

*** WARNING L16: UNCALLED SEGMENT, IGNORED FOR OVERLAY PROCESS
    SEGMENT: ?PR?_HMC5883L_GET_ANGLEXY?HMC5883L

*** WARNING L16: UNCALLED SEGMENT, IGNORED FOR OVERLAY PROCESS
    SEGMENT: ?PR?_LSM6DSMREADGYRANDACC?LSM6DSM

*** WARNING L16: UNCALLED SEGMENT, IGNORED FOR OVERLAY PROCESS
    SEGMENT: ?PR?LSM6DSMGETCURRENTSTEP?LSM6DSM

*** WARNING L16: UNCALLED SEGMENT, IGNORED FOR OVERLAY PROCESS
    SEGMENT: ?PR?LSM6DSMRESETSTEPCOUNTER?LSM6DSM

*** WARNING L16: UNCALLED SEGMENT, IGNORED FOR OVERLAY PROCESS
    SEGMENT: ?PR?LSM6DSMDISABLEPEDOMETER?LSM6DSM

*** WARNING L16: UNCALLED SEGMENT, IGNORED FOR OVERLAY PROCESS
    SEGMENT: ?PR?_IMUUPDATE?LSM6DSM

*** WARNING L16: UNCALLED SEGMENT, IGNORED FOR OVERLAY PROCESS
    SEGMENT: ?PR?ADCINIT?POWERMANAGE

*** WARNING L16: UNCALLED SEGMENT, IGNORED FOR OVERLAY PROCESS
    SEGMENT: ?PR?_ENABLE3V3OUTPUT?POWERMANAGE

*** WARNING L16: UNCALLED SEGMENT, IGNORED FOR OVERLAY PROCESS
    SEGMENT: ?PR?_BATTERYCHARGEENABLE?POWERMANAGE

*** WARNING L16: UNCALLED SEGMENT, IGNORED FOR OVERLAY PROCESS
    SEGMENT: ?PR?GETBATTERYLIFE?POWERMANAGE

*** WARNING L16: UNCALLED SEGMENT, IGNORED FOR OVERLAY PROCESS
    SEGMENT: ?PR?SYSTEMPOWERDOWN?POWERMANAGE

*** WARNING L16: UNCALLED SEGMENT, IGNORED FOR OVERLAY PROCESS
    SEGMENT: ?PR?SYSTEMDEEPPOWERDOWN?POWERMANAGE

*** WARNING L16: UNCALLED SEGMENT, IGNORED FOR OVERLAY PROCESS
    SEGMENT: ?PR?SYSTEMPOWERON?POWERMANAGE

*** WARNING L16: UNCALLED SEGMENT, IGNORED FOR OVERLAY PROCESS
    SEGMENT: ?PR?_I2D_SENDBYTE?IIC

*** WARNING L16: UNCALLED SEGMENT, IGNORED FOR OVERLAY PROCESS
    SEGMENT: ?PR?I2C_RECVHYTE?IIC

*** WARNING L16: UNCALLED SEGMENT, IGNORED FOR OVERLAY PROCESS
    SEGMENT: ?PR?_EEPROMWRITECONFIGURATION?SYS

*** WARNING L16: UNCALLED SEGMENT, IGNORED FOR OVERLAY PROCESS
    SEGMENT: ?PR?SYSINIT?SYS

*** WARNING L16: UNCALLED SEGMENT, IGNORED FOR OVERLAY PROCESS
    SEGMENT: ?PR?BUZZERINIT?BUZZER

*** WARNING L16: UNCALLED SEGMENT, IGNORED FOR OVERLAY PROCESS
BL51 BANKED LINKER/LOCATER V6.22                                                      06/27/2021  08:53:58  PAGE 82


    SEGMENT: ?PR?BEEBEEBEE?BUZZER

*** WARNING L16: UNCALLED SEGMENT, IGNORED FOR OVERLAY PROCESS
    SEGMENT: ?PR?_ENABLEBUZZER?BUZZER

*** WARNING L16: UNCALLED SEGMENT, IGNORED FOR OVERLAY PROCESS
    SEGMENT: ?PR?_DISPLAYINIT?DISPLAY

*** WARNING L16: UNCALLED SEGMENT, IGNORED FOR OVERLAY PROCESS
    SEGMENT: ?PR?_BMPTOCACHE?DISPLAY

*** WARNING L16: UNCALLED SEGMENT, IGNORED FOR OVERLAY PROCESS
    SEGMENT: ?PR?_CLEARCACHEAREA?DISPLAY

*** WARNING L16: UNCALLED SEGMENT, IGNORED FOR OVERLAY PROCESS
    SEGMENT: ?PR?SAVESCREEN?DISPLAY

*** WARNING L16: UNCALLED SEGMENT, IGNORED FOR OVERLAY PROCESS
    SEGMENT: ?PR?_SCREENREFRESHALL?DISPLAY

*** WARNING L16: UNCALLED SEGMENT, IGNORED FOR OVERLAY PROCESS
    SEGMENT: ?PR?_SCREENPUSHANIMATION?DISPLAY

*** WARNING L16: UNCALLED SEGMENT, IGNORED FOR OVERLAY PROCESS
    SEGMENT: ?PR?_SCREEROLLDOWN?DISPLAY

*** WARNING L16: UNCALLED SEGMENT, IGNORED FOR OVERLAY PROCESS
    SEGMENT: ?PR?_DISPLAYTIME?DISPLAY

*** WARNING L16: UNCALLED SEGMENT, IGNORED FOR OVERLAY PROCESS
    SEGMENT: ?PR?_DRAWARM?DISPLAY

*** WARNING L16: UNCALLED SEGMENT, IGNORED FOR OVERLAY PROCESS
    SEGMENT: ?PR?_DRAWSELECTIONFRAME?DISPLAY

*** WARNING L16: UNCALLED SEGMENT, IGNORED FOR OVERLAY PROCESS
    SEGMENT: ?PR?SENSORINIT?MAIN

*** WARNING L1: UNRESOLVED EXTERNAL SYMBOL
    SYMBOL:  _I2C_SENDBYTE
    MODULE:  ..\Objects\IIC.obj (IIC)

*** WARNING L1: UNRESOLVED EXTERNAL SYMBOL
    SYMBOL:  I2C_RECVBYTE
    MODULE:  ..\Objects\IIC.obj (IIC)

*** WARNING L2: REFERENCE MADE TO UNRESOLVED EXTERNAL
    SYMBOL:  _I2C_SENDBYTE
    MODULE:  ..\Objects\IIC.obj (IIC)
    ADDRESS: A3C8H

*** WARNING L2: REFERENCE MADE TO UNRESOLVED EXTERNAL
    SYMBOL:  _I2C_SENDBYTE
    MODULE:  ..\Objects\IIC.obj (IIC)
    ADDRESS: A3D3H

*** WARNING L2: REFERENCE MADE TO UNRESOLVED EXTERNAL
BL51 BANKED LINKER/LOCATER V6.22                                                      06/27/2021  08:53:58  PAGE 83


    SYMBOL:  _I2C_SENDBYTE
    MODULE:  ..\Objects\IIC.obj (IIC)
    ADDRESS: A3DEH

*** WARNING L2: REFERENCE MADE TO UNRESOLVED EXTERNAL
    SYMBOL:  _I2C_SENDBYTE
    MODULE:  ..\Objects\IIC.obj (IIC)
    ADDRESS: A206H

*** WARNING L2: REFERENCE MADE TO UNRESOLVED EXTERNAL
    SYMBOL:  _I2C_SENDBYTE
    MODULE:  ..\Objects\IIC.obj (IIC)
    ADDRESS: A211H

*** WARNING L2: REFERENCE MADE TO UNRESOLVED EXTERNAL
    SYMBOL:  _I2C_SENDBYTE
    MODULE:  ..\Objects\IIC.obj (IIC)
    ADDRESS: A21FH

*** WARNING L2: REFERENCE MADE TO UNRESOLVED EXTERNAL
    SYMBOL:  I2C_RECVBYTE
    MODULE:  ..\Objects\IIC.obj (IIC)
    ADDRESS: A225H

*** WARNING L2: REFERENCE MADE TO UNRESOLVED EXTERNAL
    SYMBOL:  _I2C_SENDBYTE
    MODULE:  ..\Objects\IIC.obj (IIC)
    ADDRESS: 9D1FH

*** WARNING L2: REFERENCE MADE TO UNRESOLVED EXTERNAL
    SYMBOL:  _I2C_SENDBYTE
    MODULE:  ..\Objects\IIC.obj (IIC)
    ADDRESS: 9D4CH

*** WARNING L2: REFERENCE MADE TO UNRESOLVED EXTERNAL
    SYMBOL:  _I2C_SENDBYTE
    MODULE:  ..\Objects\IIC.obj (IIC)
    ADDRESS: A098H

*** WARNING L2: REFERENCE MADE TO UNRESOLVED EXTERNAL
    SYMBOL:  I2C_RECVBYTE
    MODULE:  ..\Objects\IIC.obj (IIC)
    ADDRESS: A0B1H

*** WARNING L2: REFERENCE MADE TO UNRESOLVED EXTERNAL
    SYMBOL:  I2C_RECVBYTE
    MODULE:  ..\Objects\IIC.obj (IIC)
    ADDRESS: A0BFH

*** WARNING L2: REFERENCE MADE TO UNRESOLVED EXTERNAL
    SYMBOL:  _I2C_SENDBYTE
    MODULE:  ..\Objects\IIC.obj (IIC)
    ADDRESS: 96A6H

*** WARNING L2: REFERENCE MADE TO UNRESOLVED EXTERNAL
    SYMBOL:  _I2C_SENDBYTE
    MODULE:  ..\Objects\IIC.obj (IIC)
BL51 BANKED LINKER/LOCATER V6.22                                                      06/27/2021  08:53:58  PAGE 84


    ADDRESS: 96B1H

*** WARNING L2: REFERENCE MADE TO UNRESOLVED EXTERNAL
    SYMBOL:  _I2C_SENDBYTE
    MODULE:  ..\Objects\IIC.obj (IIC)
    ADDRESS: 96C0H

*** WARNING L2: REFERENCE MADE TO UNRESOLVED EXTERNAL
    SYMBOL:  I2C_RECVBYTE
    MODULE:  ..\Objects\IIC.obj (IIC)
    ADDRESS: 96D6H

*** WARNING L2: REFERENCE MADE TO UNRESOLVED EXTERNAL
    SYMBOL:  I2C_RECVBYTE
    MODULE:  ..\Objects\IIC.obj (IIC)
    ADDRESS: 96FAH

*** WARNING L1: UNRESOLVED EXTERNAL SYMBOL
    SYMBOL:  _SCREEROLLUP
    MODULE:  ..\Objects\Display.obj (DISPLAY)

*** WARNING L2: REFERENCE MADE TO UNRESOLVED EXTERNAL
    SYMBOL:  _SCREEROLLUP
    MODULE:  ..\Objects\Display.obj (DISPLAY)
    ADDRESS: 61C2H

*** WARNING L2: REFERENCE MADE TO UNRESOLVED EXTERNAL
    SYMBOL:  _SCREEROLLUP
    MODULE:  ..\Objects\Display.obj (DISPLAY)
    ADDRESS: 632AH

Program Size: data=159.7 xdata=4666 code=43610
LINK/LOCATE RUN COMPLETE.  85 WARNING(S),  0 ERROR(S)
